ARM GAS  /tmp/ccg6nZpr.s 			page 1


   1              		.cpu cortex-m0
   2              		.fpu softvfp
   3              		.eabi_attribute 20, 1	@ Tag_ABI_FP_denormal
   4              		.eabi_attribute 21, 1	@ Tag_ABI_FP_exceptions
   5              		.eabi_attribute 23, 3	@ Tag_ABI_FP_number_model
   6              		.eabi_attribute 24, 1	@ Tag_ABI_align8_needed
   7              		.eabi_attribute 25, 1	@ Tag_ABI_align8_preserved
   8              		.eabi_attribute 26, 1	@ Tag_ABI_enum_size
   9              		.eabi_attribute 30, 2	@ Tag_ABI_optimization_goals
  10              		.eabi_attribute 34, 0	@ Tag_CPU_unaligned_access
  11              		.eabi_attribute 18, 4	@ Tag_ABI_PCS_wchar_t
  12              		.file	"microrl.c"
  13              	@ GNU C (15:4.9.3+svn231177-1) version 4.9.3 20150529 (prerelease) (arm-none-eabi)
  14              	@	compiled by GNU C version 5.2.1 20151129, GMP version 6.1.0, MPFR version 3.1.3, MPC version 1.0.
  15              	@ warning: MPFR header version 3.1.3 differs from library version 3.1.4.
  16              	@ GGC heuristics: --param ggc-min-expand=100 --param ggc-min-heapsize=131072
  17              	@ options passed:  -I . -I inc/ -I inc/fsae_drivers/
  18              	@ -I ../../lib/lpc11cx4-library/lpc_chip_11cxx_lib/inc
  19              	@ -I ../../lib/lpc11cx4-library/evt_lib/inc/ -I ../../lib/CANlib
  20              	@ -imultilib armv6-m -MD bin/microrl.d -MF bin/microrl.d -MP
  21              	@ -MQ bin/microrl.o -D__USES_INITFINI__ -D UART_BAUD=57600 -D CORE_M0
  22              	@ -D DEBUG_ENABLE -D FSAE_DRIVERS -D CAN_ARCHITECTURE_ARM src/microrl.c
  23              	@ -mcpu=cortex-m0 -mthumb -auxbase-strip bin/microrl.o -g -ggdb3 -O2 -Wall
  24              	@ -Wstrict-prototypes -Wextra -std=gnu90 -ffunction-sections
  25              	@ -fdata-sections -fdiagnostics-color=always -fverbose-asm
  26              	@ options enabled:  -faggressive-loop-optimizations -fauto-inc-dec
  27              	@ -fbranch-count-reg -fcaller-saves -fcombine-stack-adjustments -fcommon
  28              	@ -fcompare-elim -fcprop-registers -fcrossjumping -fcse-follow-jumps
  29              	@ -fdata-sections -fdefer-pop -fdelete-null-pointer-checks -fdevirtualize
  30              	@ -fdevirtualize-speculatively -fdwarf2-cfi-asm -fearly-inlining
  31              	@ -feliminate-unused-debug-types -fexpensive-optimizations
  32              	@ -fforward-propagate -ffunction-cse -ffunction-sections -fgcse -fgcse-lm
  33              	@ -fgnu-runtime -fgnu-unique -fguess-branch-probability
  34              	@ -fhoist-adjacent-loads -fident -fif-conversion -fif-conversion2
  35              	@ -findirect-inlining -finline -finline-atomics
  36              	@ -finline-functions-called-once -finline-small-functions -fipa-cp
  37              	@ -fipa-profile -fipa-pure-const -fipa-reference -fipa-sra
  38              	@ -fira-hoist-pressure -fira-share-save-slots -fira-share-spill-slots
  39              	@ -fisolate-erroneous-paths-dereference -fivopts -fkeep-static-consts
  40              	@ -fleading-underscore -flifetime-dse -fmath-errno -fmerge-constants
  41              	@ -fmerge-debug-strings -fmove-loop-invariants -fomit-frame-pointer
  42              	@ -foptimize-sibling-calls -foptimize-strlen -fpartial-inlining -fpeephole
  43              	@ -fpeephole2 -fprefetch-loop-arrays -freg-struct-return -freorder-blocks
  44              	@ -freorder-functions -frerun-cse-after-loop
  45              	@ -fsched-critical-path-heuristic -fsched-dep-count-heuristic
  46              	@ -fsched-group-heuristic -fsched-interblock -fsched-last-insn-heuristic
  47              	@ -fsched-pressure -fsched-rank-heuristic -fsched-spec
  48              	@ -fsched-spec-insn-heuristic -fsched-stalled-insns-dep -fschedule-insns2
  49              	@ -fsection-anchors -fshow-column -fshrink-wrap -fsigned-zeros
  50              	@ -fsplit-ivs-in-unroller -fsplit-wide-types -fstrict-aliasing
  51              	@ -fstrict-overflow -fstrict-volatile-bitfields -fsync-libcalls
  52              	@ -fthread-jumps -ftoplevel-reorder -ftrapping-math -ftree-bit-ccp
  53              	@ -ftree-builtin-call-dce -ftree-ccp -ftree-ch -ftree-coalesce-vars
  54              	@ -ftree-copy-prop -ftree-copyrename -ftree-cselim -ftree-dce
  55              	@ -ftree-dominator-opts -ftree-dse -ftree-forwprop -ftree-fre
  56              	@ -ftree-loop-if-convert -ftree-loop-im -ftree-loop-ivcanon
  57              	@ -ftree-loop-optimize -ftree-parallelize-loops= -ftree-phiprop -ftree-pre
ARM GAS  /tmp/ccg6nZpr.s 			page 2


  58              	@ -ftree-pta -ftree-reassoc -ftree-scev-cprop -ftree-sink -ftree-slsr
  59              	@ -ftree-sra -ftree-switch-conversion -ftree-tail-merge -ftree-ter
  60              	@ -ftree-vrp -funit-at-a-time -fvar-tracking -fvar-tracking-assignments
  61              	@ -fverbose-asm -fzero-initialized-in-bss -mlittle-endian -mlra
  62              	@ -mpic-data-is-text-relative -msched-prolog -mthumb
  63              	@ -mvectorize-with-neon-quad
  64              	
  65              		.text
  66              	.Ltext0:
  67              		.cfi_sections	.debug_frame
  68              		.global	__aeabi_uidivmod
  69              		.global	__aeabi_uidiv
  70              		.section	.text.u16bit_to_str,"ax",%progbits
  71              		.align	2
  72              		.code	16
  73              		.thumb_func
  74              		.type	u16bit_to_str, %function
  75              	u16bit_to_str:
  76              	.LFB8:
  77              		.file 1 "src/microrl.c"
   1:src/microrl.c **** /*
   2:src/microrl.c **** Author: Samoylov Eugene aka Helius (ghelius@gmail.com)
   3:src/microrl.c **** BUGS and TODO:
   4:src/microrl.c **** -- add echo_off feature
   5:src/microrl.c **** -- rewrite history for use more than 256 byte buffer
   6:src/microrl.c **** */
   7:src/microrl.c **** 
   8:src/microrl.c **** #include <string.h>
   9:src/microrl.c **** #include <ctype.h>
  10:src/microrl.c **** #include <stdlib.h>
  11:src/microrl.c **** #include "microrl.h"
  12:src/microrl.c **** #include <stdbool.h>
  13:src/microrl.c **** #include <stdint.h>
  14:src/microrl.c **** #ifdef _USE_LIBC_STDIO
  15:src/microrl.c **** #include <stdio.h>
  16:src/microrl.c **** #endif
  17:src/microrl.c **** 
  18:src/microrl.c **** //#define DBG(...) fprintf(stderr, "\033[33m");fprintf(stderr,__VA_ARGS__);fprintf(stderr,"\033[0m"
  19:src/microrl.c **** 
  20:src/microrl.c **** char * prompt_default = _PROMPT_DEFAULT;
  21:src/microrl.c **** 
  22:src/microrl.c **** #ifdef _USE_HISTORY
  23:src/microrl.c **** 
  24:src/microrl.c **** #ifdef _HISTORY_DEBUG
  25:src/microrl.c **** //*****************************************************************************
  26:src/microrl.c **** // print buffer content on screen
  27:src/microrl.c **** static void print_hist (ring_history_t * pThis)
  28:src/microrl.c **** {
  29:src/microrl.c ****     printf ("\n");
  30:src/microrl.c ****     for (int i = 0; i < _RING_HISTORY_LEN; i++) {
  31:src/microrl.c ****         if (i == pThis->begin)
  32:src/microrl.c ****             printf ("b");
  33:src/microrl.c ****         else 
  34:src/microrl.c ****             printf (" ");
  35:src/microrl.c ****     }
  36:src/microrl.c ****     printf ("\n");
  37:src/microrl.c ****     for (int i = 0; i < _RING_HISTORY_LEN; i++) {
ARM GAS  /tmp/ccg6nZpr.s 			page 3


  38:src/microrl.c ****         if (isalpha(pThis->ring_buf[i]))
  39:src/microrl.c ****             printf ("%c", pThis->ring_buf[i]);
  40:src/microrl.c ****         else 
  41:src/microrl.c ****             printf ("%d", pThis->ring_buf[i]);
  42:src/microrl.c ****     }
  43:src/microrl.c ****     printf ("\n");
  44:src/microrl.c ****     for (int i = 0; i < _RING_HISTORY_LEN; i++) {
  45:src/microrl.c ****         if (i == pThis->end)
  46:src/microrl.c ****             printf ("e");
  47:src/microrl.c ****         else 
  48:src/microrl.c ****             printf (" ");
  49:src/microrl.c ****     }
  50:src/microrl.c ****     printf ("\n");
  51:src/microrl.c **** }
  52:src/microrl.c **** #endif
  53:src/microrl.c **** 
  54:src/microrl.c **** //*****************************************************************************
  55:src/microrl.c **** // remove older message from ring buffer
  56:src/microrl.c **** static void hist_erase_older (ring_history_t * pThis)
  57:src/microrl.c **** {
  58:src/microrl.c ****     int new_pos = pThis->begin + pThis->ring_buf [pThis->begin] + 1;
  59:src/microrl.c ****     if (new_pos >= _RING_HISTORY_LEN)
  60:src/microrl.c ****         new_pos = new_pos - _RING_HISTORY_LEN;
  61:src/microrl.c ****     
  62:src/microrl.c ****     pThis->begin = new_pos;
  63:src/microrl.c **** }
  64:src/microrl.c **** 
  65:src/microrl.c **** //*****************************************************************************
  66:src/microrl.c **** // check space for new line, remove older while not space
  67:src/microrl.c **** static int hist_is_space_for_new (ring_history_t * pThis, int len)
  68:src/microrl.c **** {
  69:src/microrl.c ****     if (pThis->ring_buf [pThis->begin] == 0)
  70:src/microrl.c ****         return true;
  71:src/microrl.c ****     if (pThis->end >= pThis->begin) {
  72:src/microrl.c ****         if (_RING_HISTORY_LEN - pThis->end + pThis->begin - 1 > len)
  73:src/microrl.c ****             return true;
  74:src/microrl.c ****     }   else {
  75:src/microrl.c ****         if (pThis->begin - pThis->end - 1> len)
  76:src/microrl.c ****             return true;
  77:src/microrl.c ****     }
  78:src/microrl.c ****     return false;
  79:src/microrl.c **** }
  80:src/microrl.c **** 
  81:src/microrl.c **** //*****************************************************************************
  82:src/microrl.c **** // put line to ring buffer
  83:src/microrl.c **** static void hist_save_line (ring_history_t * pThis, char * line, int len)
  84:src/microrl.c **** {
  85:src/microrl.c ****     if (len > _RING_HISTORY_LEN - 2)
  86:src/microrl.c ****         return;
  87:src/microrl.c ****     while (!hist_is_space_for_new (pThis, len)) {
  88:src/microrl.c ****         hist_erase_older (pThis);
  89:src/microrl.c ****     }
  90:src/microrl.c ****     // if it's first line
  91:src/microrl.c ****     if (pThis->ring_buf [pThis->begin] == 0) 
  92:src/microrl.c ****         pThis->ring_buf [pThis->begin] = len;
  93:src/microrl.c ****     
  94:src/microrl.c ****     // store line
ARM GAS  /tmp/ccg6nZpr.s 			page 4


  95:src/microrl.c ****     if (len < _RING_HISTORY_LEN-pThis->end-1)
  96:src/microrl.c ****         memcpy (pThis->ring_buf + pThis->end + 1, line, len);
  97:src/microrl.c ****     else {
  98:src/microrl.c ****         int part_len = _RING_HISTORY_LEN-pThis->end-1;
  99:src/microrl.c ****         memcpy (pThis->ring_buf + pThis->end + 1, line, part_len);
 100:src/microrl.c ****         memcpy (pThis->ring_buf, line + part_len, len - part_len);
 101:src/microrl.c ****     }
 102:src/microrl.c ****     pThis->ring_buf [pThis->end] = len;
 103:src/microrl.c ****     pThis->end = pThis->end + len + 1;
 104:src/microrl.c ****     if (pThis->end >= _RING_HISTORY_LEN)
 105:src/microrl.c ****         pThis->end -= _RING_HISTORY_LEN;
 106:src/microrl.c ****     pThis->ring_buf [pThis->end] = 0;
 107:src/microrl.c ****     pThis->cur = 0;
 108:src/microrl.c **** #ifdef _HISTORY_DEBUG
 109:src/microrl.c ****     print_hist (pThis);
 110:src/microrl.c **** #endif
 111:src/microrl.c **** }
 112:src/microrl.c **** 
 113:src/microrl.c **** 
 114:src/microrl.c **** //*****************************************************************************
 115:src/microrl.c **** // copy saved line to 'line' and return size of line
 116:src/microrl.c **** static int hist_restore_line (ring_history_t * pThis, char * line, int dir)
 117:src/microrl.c **** {
 118:src/microrl.c ****     int cnt = 0;
 119:src/microrl.c ****     // count history record 
 120:src/microrl.c ****     int header = pThis->begin;
 121:src/microrl.c ****     while (pThis->ring_buf [header] != 0) {
 122:src/microrl.c ****         header += pThis->ring_buf [header] + 1;
 123:src/microrl.c ****         if (header >= _RING_HISTORY_LEN)
 124:src/microrl.c ****             header -= _RING_HISTORY_LEN; 
 125:src/microrl.c ****         cnt++;
 126:src/microrl.c ****     }
 127:src/microrl.c **** 
 128:src/microrl.c ****     if (dir == _HIST_UP) {
 129:src/microrl.c ****         if (cnt >= pThis->cur) {
 130:src/microrl.c ****             int header = pThis->begin;
 131:src/microrl.c ****             int j = 0;
 132:src/microrl.c ****             // found record for 'pThis->cur' index
 133:src/microrl.c ****             while ((pThis->ring_buf [header] != 0) && (cnt - j -1 != pThis->cur)) {
 134:src/microrl.c ****                 header += pThis->ring_buf [header] + 1;
 135:src/microrl.c ****                 if (header >= _RING_HISTORY_LEN)
 136:src/microrl.c ****                     header -= _RING_HISTORY_LEN;
 137:src/microrl.c ****                 j++;
 138:src/microrl.c ****             }
 139:src/microrl.c ****             if (pThis->ring_buf[header]) {
 140:src/microrl.c ****                     pThis->cur++;
 141:src/microrl.c ****                 // obtain saved line
 142:src/microrl.c ****                 if (pThis->ring_buf [header] + header < _RING_HISTORY_LEN) {
 143:src/microrl.c ****                     memset (line, 0, _COMMAND_LINE_LEN);
 144:src/microrl.c ****                     memcpy (line, pThis->ring_buf + header + 1, pThis->ring_buf[header]);
 145:src/microrl.c ****                 } else {
 146:src/microrl.c ****                     int part0 = _RING_HISTORY_LEN - header - 1;
 147:src/microrl.c ****                     memset (line, 0, _COMMAND_LINE_LEN);
 148:src/microrl.c ****                     memcpy (line, pThis->ring_buf + header + 1, part0);
 149:src/microrl.c ****                     memcpy (line + part0, pThis->ring_buf, pThis->ring_buf[header] - part0);
 150:src/microrl.c ****                 }
 151:src/microrl.c ****                 return pThis->ring_buf[header];
ARM GAS  /tmp/ccg6nZpr.s 			page 5


 152:src/microrl.c ****             }
 153:src/microrl.c ****         }
 154:src/microrl.c ****     } else {
 155:src/microrl.c ****         if (pThis->cur > 0) {
 156:src/microrl.c ****                 pThis->cur--;
 157:src/microrl.c ****             int header = pThis->begin;
 158:src/microrl.c ****             int j = 0;
 159:src/microrl.c **** 
 160:src/microrl.c ****             while ((pThis->ring_buf [header] != 0) && (cnt - j != pThis->cur)) {
 161:src/microrl.c ****                 header += pThis->ring_buf [header] + 1;
 162:src/microrl.c ****                 if (header >= _RING_HISTORY_LEN)
 163:src/microrl.c ****                     header -= _RING_HISTORY_LEN;
 164:src/microrl.c ****                 j++;
 165:src/microrl.c ****             }
 166:src/microrl.c ****             if (pThis->ring_buf [header] + header < _RING_HISTORY_LEN) {
 167:src/microrl.c ****                 memcpy (line, pThis->ring_buf + header + 1, pThis->ring_buf[header]);
 168:src/microrl.c ****             } else {
 169:src/microrl.c ****                 int part0 = _RING_HISTORY_LEN - header - 1;
 170:src/microrl.c ****                 memcpy (line, pThis->ring_buf + header + 1, part0);
 171:src/microrl.c ****                 memcpy (line + part0, pThis->ring_buf, pThis->ring_buf[header] - part0);
 172:src/microrl.c ****             }
 173:src/microrl.c ****             return pThis->ring_buf[header];
 174:src/microrl.c ****         } else {
 175:src/microrl.c ****             /* empty line */
 176:src/microrl.c ****             return 0;
 177:src/microrl.c ****         }
 178:src/microrl.c ****     }
 179:src/microrl.c ****     return -1;
 180:src/microrl.c **** }
 181:src/microrl.c **** #endif
 182:src/microrl.c **** 
 183:src/microrl.c **** 
 184:src/microrl.c **** 
 185:src/microrl.c **** 
 186:src/microrl.c **** 
 187:src/microrl.c **** 
 188:src/microrl.c **** 
 189:src/microrl.c **** 
 190:src/microrl.c **** //*****************************************************************************
 191:src/microrl.c **** // split cmdline to tkn array and return nmb of token
 192:src/microrl.c **** static int32_t split (microrl_t * pThis, int limit, char const ** tkn_arr) {
 193:src/microrl.c ****     int32_t i = 0;
 194:src/microrl.c ****     int ind = 0;
 195:src/microrl.c ****     while (1) {
 196:src/microrl.c ****         // go to the first whitespace (zerro for us)
 197:src/microrl.c ****         while ((pThis->cmdline [ind] == '\0') && (ind < limit)) {
 198:src/microrl.c ****             ind++;
 199:src/microrl.c ****         }
 200:src/microrl.c ****         if (!(ind < limit)) return i;
 201:src/microrl.c ****         tkn_arr[i++] = pThis->cmdline + ind;
 202:src/microrl.c ****         if (i >= _COMMAND_TOKEN_NMB) {
 203:src/microrl.c ****             return -1;
 204:src/microrl.c ****         }
 205:src/microrl.c ****         // go to the first NOT whitespace (not zerro for us)
 206:src/microrl.c ****         while ((pThis->cmdline [ind] != '\0') && (ind < limit)) {
 207:src/microrl.c ****             ind++;
 208:src/microrl.c ****         }
ARM GAS  /tmp/ccg6nZpr.s 			page 6


 209:src/microrl.c ****         if (!(ind < limit)) return i;
 210:src/microrl.c ****     }
 211:src/microrl.c ****     return i;
 212:src/microrl.c **** }
 213:src/microrl.c **** 
 214:src/microrl.c **** 
 215:src/microrl.c **** //*****************************************************************************
 216:src/microrl.c **** inline static void print_prompt (microrl_t * pThis) {
 217:src/microrl.c ****     pThis->print (pThis->prompt_str);
 218:src/microrl.c **** }
 219:src/microrl.c **** 
 220:src/microrl.c **** //*****************************************************************************
 221:src/microrl.c **** inline static void terminal_backspace (microrl_t * pThis) {
 222:src/microrl.c ****         pThis->print ("\033[D \033[D");
 223:src/microrl.c **** }
 224:src/microrl.c **** 
 225:src/microrl.c **** //*****************************************************************************
 226:src/microrl.c **** inline static void terminal_newline (microrl_t * pThis)
 227:src/microrl.c **** {
 228:src/microrl.c ****     pThis->print (ENDL);
 229:src/microrl.c **** }
 230:src/microrl.c **** 
 231:src/microrl.c **** #ifndef _USE_LIBC_STDIO
 232:src/microrl.c **** //*****************************************************************************
 233:src/microrl.c **** // convert 16 bit value to string
 234:src/microrl.c **** // 0 value not supported!!! just make empty string
 235:src/microrl.c **** // Returns pointer to a buffer tail
 236:src/microrl.c **** static char *u16bit_to_str (unsigned int nmb, char * buf)
 237:src/microrl.c **** {
  78              		.loc 1 237 0
  79              		.cfi_startproc
  80              	.LVL0:
  81 0000 F0B5     		push	{r4, r5, r6, r7, lr}	@
  82              		.cfi_def_cfa_offset 20
  83              		.cfi_offset 4, -20
  84              		.cfi_offset 5, -16
  85              		.cfi_offset 6, -12
  86              		.cfi_offset 7, -8
  87              		.cfi_offset 14, -4
  88 0002 83B0     		sub	sp, sp, #12	@,,
  89              		.cfi_def_cfa_offset 32
 238:src/microrl.c ****     char tmp_str [6] = {0,};
  90              		.loc 1 238 0
  91 0004 0023     		mov	r3, #0	@ tmp156,
  92 0006 6A46     		mov	r2, sp	@ tmp187,
  93 0008 0093     		str	r3, [sp]	@ tmp156, tmp_str
  94 000a 9380     		strh	r3, [r2, #4]	@ tmp156, tmp_str
  95              	.LVL1:
 239:src/microrl.c ****     int i = 0, j;
 240:src/microrl.c ****     if (nmb <= 0xFFFF) {
 241:src/microrl.c ****         while (nmb > 0) {
  96              		.loc 1 241 0
  97 000c 134B     		ldr	r3, .L8	@ tmp160,
  98 000e 421E     		sub	r2, r0, #1	@ D.5407, nmb,
 237:src/microrl.c ****     char tmp_str [6] = {0,};
  99              		.loc 1 237 0
 100 0010 051C     		mov	r5, r0	@ nmb, nmb
ARM GAS  /tmp/ccg6nZpr.s 			page 7


 101 0012 0F1C     		mov	r7, r1	@ buf, buf
 102              		.loc 1 241 0
 103 0014 9A42     		cmp	r2, r3	@ D.5407, tmp160
 104 0016 1BD8     		bhi	.L2	@,
 105 0018 0026     		mov	r6, #0	@ i,
 106              	.LVL2:
 107              	.L3:
 242:src/microrl.c ****             tmp_str[i++] = (nmb % 10) + '0';
 108              		.loc 1 242 0
 109 001a 0136     		add	r6, r6, #1	@ i,
 110              	.LVL3:
 111 001c 731E     		sub	r3, r6, #1	@ D.5408, i,
 112 001e 6B44     		add	r3, r3, sp	@ D.5411,
 113 0020 281C     		mov	r0, r5	@, nmb
 114 0022 0A21     		mov	r1, #10	@,
 115 0024 1C1C     		mov	r4, r3	@ D.5411, D.5411
 116 0026 FFF7FEFF 		bl	__aeabi_uidivmod	@
 117              	.LVL4:
 118 002a 3031     		add	r1, r1, #48	@ tmp172,
 119 002c 2170     		strb	r1, [r4]	@ tmp172, MEM[base: _34, offset: 0B]
 243:src/microrl.c ****             nmb /=10;
 120              		.loc 1 243 0
 121 002e 281C     		mov	r0, r5	@, nmb
 122 0030 0A21     		mov	r1, #10	@,
 123 0032 FFF7FEFF 		bl	__aeabi_uidiv	@
 124              	.LVL5:
 125 0036 051E     		sub	r5, r0, #0	@ nmb,,
 126              	.LVL6:
 241:src/microrl.c ****             tmp_str[i++] = (nmb % 10) + '0';
 127              		.loc 1 241 0
 128 0038 EFD1     		bne	.L3	@,
 129              	.LVL7:
 130 003a 6946     		mov	r1, sp	@ tmp189,
 131 003c 3A1C     		mov	r2, r7	@ ivtmp.43, buf
 132 003e 231C     		mov	r3, r4	@ ivtmp.44, D.5411
 133 0040 481E     		sub	r0, r1, #1	@ D.5412, tmp189,
 134              	.LVL8:
 135              	.L4:
 244:src/microrl.c ****         }
 245:src/microrl.c ****         for (j = 0; j < i; ++j)
 246:src/microrl.c ****             *(buf++) = tmp_str [i-j-1];
 136              		.loc 1 246 0 discriminator 3
 137 0042 1978     		ldrb	r1, [r3]	@ MEM[base: _35, offset: 0B], MEM[base: _35, offset: 0B]
 138 0044 013B     		sub	r3, r3, #1	@ ivtmp.44,
 139 0046 1170     		strb	r1, [r2]	@ MEM[base: _35, offset: 0B], MEM[base: _14, offset: 0B]
 140              	.LVL9:
 141 0048 0132     		add	r2, r2, #1	@ ivtmp.43,
 142              	.LVL10:
 245:src/microrl.c ****             *(buf++) = tmp_str [i-j-1];
 143              		.loc 1 245 0 discriminator 3
 144 004a 8342     		cmp	r3, r0	@ ivtmp.44, D.5412
 145 004c F9D1     		bne	.L4	@,
 146 004e BF19     		add	r7, r7, r6	@ buf, buf, i
 147              	.LVL11:
 148              	.L2:
 247:src/microrl.c ****     }
 248:src/microrl.c ****     *buf = '\0';
ARM GAS  /tmp/ccg6nZpr.s 			page 8


 149              		.loc 1 248 0
 150 0050 0023     		mov	r3, #0	@ tmp183,
 249:src/microrl.c ****     return buf;
 250:src/microrl.c **** }
 151              		.loc 1 250 0
 152 0052 381C     		mov	r0, r7	@, buf
 248:src/microrl.c ****     return buf;
 153              		.loc 1 248 0
 154 0054 3B70     		strb	r3, [r7]	@ tmp183, *buf_3
 155              		.loc 1 250 0
 156 0056 03B0     		add	sp, sp, #12	@,,
 157              		@ sp needed	@
 158              	.LVL12:
 159              	.LVL13:
 160 0058 F0BD     		pop	{r4, r5, r6, r7, pc}
 161              	.L9:
 162 005a C046     		.align	2
 163              	.L8:
 164 005c FEFF0000 		.word	65534
 165              		.cfi_endproc
 166              	.LFE8:
 167              		.size	u16bit_to_str, .-u16bit_to_str
 168              		.section	.text.terminal_reset_cursor.isra.3,"ax",%progbits
 169              		.align	2
 170              		.code	16
 171              		.thumb_func
 172              		.type	terminal_reset_cursor.isra.3, %function
 173              	terminal_reset_cursor.isra.3:
 174              	.LFB23:
 251:src/microrl.c **** #endif
 252:src/microrl.c **** 
 253:src/microrl.c **** 
 254:src/microrl.c **** //*****************************************************************************
 255:src/microrl.c **** // set cursor at position from begin cmdline (after prompt) + offset
 256:src/microrl.c **** static void terminal_move_cursor (microrl_t * pThis, int offset)
 257:src/microrl.c **** {
 258:src/microrl.c ****     char str[16] = {0,};
 259:src/microrl.c **** #ifdef _USE_LIBC_STDIO 
 260:src/microrl.c ****     if (offset > 0) {
 261:src/microrl.c ****         snprintf (str, 16, "\033[%dC", offset);
 262:src/microrl.c ****     } else if (offset < 0) {
 263:src/microrl.c ****         snprintf (str, 16, "\033[%dD", -(offset));
 264:src/microrl.c ****     }
 265:src/microrl.c **** #else 
 266:src/microrl.c ****     char *endstr;
 267:src/microrl.c ****     strcpy (str, "\033[");
 268:src/microrl.c ****     if (offset > 0) {
 269:src/microrl.c ****         endstr = u16bit_to_str (offset, str+2);
 270:src/microrl.c ****         strcpy (endstr, "C");
 271:src/microrl.c ****     } else if (offset < 0) {
 272:src/microrl.c ****         endstr = u16bit_to_str (-(offset), str+2);
 273:src/microrl.c ****         strcpy (endstr, "D");
 274:src/microrl.c ****     } else
 275:src/microrl.c ****         return;
 276:src/microrl.c **** #endif  
 277:src/microrl.c ****     pThis->print (str);
 278:src/microrl.c **** }
ARM GAS  /tmp/ccg6nZpr.s 			page 9


 279:src/microrl.c **** 
 280:src/microrl.c **** //*****************************************************************************
 281:src/microrl.c **** static void terminal_reset_cursor (microrl_t * pThis)
 175              		.loc 1 281 0
 176              		.cfi_startproc
 177              	.LVL14:
 178 0000 30B5     		push	{r4, r5, lr}	@
 179              		.cfi_def_cfa_offset 12
 180              		.cfi_offset 4, -12
 181              		.cfi_offset 5, -8
 182              		.cfi_offset 14, -4
 183 0002 85B0     		sub	sp, sp, #20	@,,
 184              		.cfi_def_cfa_offset 32
 282:src/microrl.c **** {
 283:src/microrl.c ****     char str[16];
 284:src/microrl.c **** #ifdef _USE_LIBC_STDIO
 285:src/microrl.c ****     snprintf (str, 16, "\033[%dD\033[%dC", \
 286:src/microrl.c ****                         _COMMAND_LINE_LEN + _PROMPT_LEN + 2, _PROMPT_LEN);
 287:src/microrl.c **** 
 288:src/microrl.c **** #else
 289:src/microrl.c ****     char *endstr;
 290:src/microrl.c ****     strcpy (str, "\033[");
 185              		.loc 1 290 0
 186 0004 6946     		mov	r1, sp	@ tmp139,
 187 0006 0E4B     		ldr	r3, .L11	@ tmp116,
 281:src/microrl.c **** {
 188              		.loc 1 281 0
 189 0008 051C     		mov	r5, r0	@ ISRA.25, ISRA.25
 190              		.loc 1 290 0
 191 000a 1A88     		ldrh	r2, [r3]	@ tmp120,
 291:src/microrl.c ****     endstr = u16bit_to_str ( _COMMAND_LINE_LEN + _PROMPT_LEN + 2,str+2);
 192              		.loc 1 291 0
 193 000c 3820     		mov	r0, #56	@,
 290:src/microrl.c ****     endstr = u16bit_to_str ( _COMMAND_LINE_LEN + _PROMPT_LEN + 2,str+2);
 194              		.loc 1 290 0
 195 000e 0A80     		strh	r2, [r1]	@ tmp120,
 196 0010 9B78     		ldrb	r3, [r3, #2]	@ tmp122,
 197              		.loc 1 291 0
 198 0012 0231     		add	r1, r1, #2	@,
 290:src/microrl.c ****     endstr = u16bit_to_str ( _COMMAND_LINE_LEN + _PROMPT_LEN + 2,str+2);
 199              		.loc 1 290 0
 200 0014 0B70     		strb	r3, [r1]	@ tmp122,
 201              		.loc 1 291 0
 202 0016 FFF7FEFF 		bl	u16bit_to_str	@
 203              	.LVL15:
 204 001a 041C     		mov	r4, r0	@ endstr,
 205              	.LVL16:
 292:src/microrl.c ****     strcpy (endstr, "D\033["); endstr += 3;
 206              		.loc 1 292 0
 207 001c 0422     		mov	r2, #4	@,
 208 001e 0949     		ldr	r1, .L11+4	@,
 209 0020 FFF7FEFF 		bl	memcpy	@
 210              	.LVL17:
 211 0024 E11C     		add	r1, r4, #3	@ endstr, endstr,
 212              	.LVL18:
 293:src/microrl.c ****     endstr = u16bit_to_str (_PROMPT_LEN, endstr);
 213              		.loc 1 293 0
ARM GAS  /tmp/ccg6nZpr.s 			page 10


 214 0026 0320     		mov	r0, #3	@,
 215 0028 FFF7FEFF 		bl	u16bit_to_str	@
 216              	.LVL19:
 294:src/microrl.c ****     strcpy (endstr, "C");
 217              		.loc 1 294 0
 218 002c 0649     		ldr	r1, .L11+8	@,
 219 002e 0222     		mov	r2, #2	@,
 220 0030 FFF7FEFF 		bl	memcpy	@
 221              	.LVL20:
 295:src/microrl.c **** #endif
 296:src/microrl.c ****     pThis->print (str);
 222              		.loc 1 296 0
 223 0034 2B68     		ldr	r3, [r5]	@ *ISRA.25_14(D), *ISRA.25_14(D)
 224 0036 6846     		mov	r0, sp	@,
 225 0038 9847     		blx	r3	@ *ISRA.25_14(D)
 226              	.LVL21:
 297:src/microrl.c **** }
 227              		.loc 1 297 0
 228 003a 05B0     		add	sp, sp, #20	@,,
 229              		@ sp needed	@
 230 003c 30BD     		pop	{r4, r5, pc}
 231              	.L12:
 232 003e C046     		.align	2
 233              	.L11:
 234 0040 00000000 		.word	.LC2
 235 0044 04000000 		.word	.LC4
 236 0048 08000000 		.word	.LC6
 237              		.cfi_endproc
 238              	.LFE23:
 239              		.size	terminal_reset_cursor.isra.3, .-terminal_reset_cursor.isra.3
 240              		.section	.text.terminal_move_cursor.isra.4,"ax",%progbits
 241              		.align	2
 242              		.code	16
 243              		.thumb_func
 244              		.type	terminal_move_cursor.isra.4, %function
 245              	terminal_move_cursor.isra.4:
 246              	.LFB24:
 256:src/microrl.c **** {
 247              		.loc 1 256 0
 248              		.cfi_startproc
 249              	.LVL22:
 250 0000 10B5     		push	{r4, lr}	@
 251              		.cfi_def_cfa_offset 8
 252              		.cfi_offset 4, -8
 253              		.cfi_offset 14, -4
 258:src/microrl.c **** #ifdef _USE_LIBC_STDIO 
 254              		.loc 1 258 0
 255 0002 0023     		mov	r3, #0	@ tmp119,
 256:src/microrl.c **** {
 256              		.loc 1 256 0
 257 0004 84B0     		sub	sp, sp, #16	@,,
 258              		.cfi_def_cfa_offset 24
 256:src/microrl.c **** {
 259              		.loc 1 256 0
 260 0006 041C     		mov	r4, r0	@ ISRA.27, ISRA.27
 267:src/microrl.c ****     if (offset > 0) {
 261              		.loc 1 267 0
ARM GAS  /tmp/ccg6nZpr.s 			page 11


 262 0008 6846     		mov	r0, sp	@ tmp151,
 258:src/microrl.c **** #ifdef _USE_LIBC_STDIO 
 263              		.loc 1 258 0
 264 000a 0093     		str	r3, [sp]	@ tmp119, str
 265 000c 0193     		str	r3, [sp, #4]	@ tmp119, str
 266 000e 0293     		str	r3, [sp, #8]	@ tmp119, str
 267 0010 0393     		str	r3, [sp, #12]	@ tmp119, str
 267:src/microrl.c ****     if (offset > 0) {
 268              		.loc 1 267 0
 269 0012 104B     		ldr	r3, .L21	@ tmp124,
 270 0014 1A88     		ldrh	r2, [r3]	@ tmp128,
 271 0016 0280     		strh	r2, [r0]	@ tmp128,
 272 0018 9B78     		ldrb	r3, [r3, #2]	@ tmp130,
 273 001a 6A46     		mov	r2, sp	@ tmp152,
 274 001c 8370     		strb	r3, [r0, #2]	@ tmp130,
 268:src/microrl.c ****         endstr = u16bit_to_str (offset, str+2);
 275              		.loc 1 268 0
 276 001e 0029     		cmp	r1, #0	@ offset,
 277 0020 0CDD     		ble	.L14	@,
 269:src/microrl.c ****         strcpy (endstr, "C");
 278              		.loc 1 269 0
 279 0022 081C     		mov	r0, r1	@, offset
 280 0024 911C     		add	r1, r2, #2	@, tmp153,
 281              	.LVL23:
 282 0026 FFF7FEFF 		bl	u16bit_to_str	@
 283              	.LVL24:
 270:src/microrl.c ****     } else if (offset < 0) {
 284              		.loc 1 270 0
 285 002a 0B49     		ldr	r1, .L21+4	@,
 286 002c 0222     		mov	r2, #2	@,
 287 002e FFF7FEFF 		bl	memcpy	@
 288              	.LVL25:
 289              	.L15:
 277:src/microrl.c **** }
 290              		.loc 1 277 0
 291 0032 2368     		ldr	r3, [r4]	@ *ISRA.27_21(D), *ISRA.27_21(D)
 292 0034 6846     		mov	r0, sp	@,
 293 0036 9847     		blx	r3	@ *ISRA.27_21(D)
 294              	.LVL26:
 295              	.L13:
 278:src/microrl.c **** 
 296              		.loc 1 278 0
 297 0038 04B0     		add	sp, sp, #16	@,,
 298              		@ sp needed	@
 299 003a 10BD     		pop	{r4, pc}
 300              	.LVL27:
 301              	.L14:
 271:src/microrl.c ****         endstr = u16bit_to_str (-(offset), str+2);
 302              		.loc 1 271 0
 303 003c 0029     		cmp	r1, #0	@ offset,
 304 003e FBD0     		beq	.L13	@,
 272:src/microrl.c ****         strcpy (endstr, "D");
 305              		.loc 1 272 0
 306 0040 4842     		neg	r0, r1	@ D.5429, offset
 307 0042 911C     		add	r1, r2, #2	@, tmp154,
 308              	.LVL28:
 309 0044 FFF7FEFF 		bl	u16bit_to_str	@
ARM GAS  /tmp/ccg6nZpr.s 			page 12


 310              	.LVL29:
 273:src/microrl.c ****     } else
 311              		.loc 1 273 0
 312 0048 0449     		ldr	r1, .L21+8	@,
 313 004a 0222     		mov	r2, #2	@,
 314 004c FFF7FEFF 		bl	memcpy	@
 315              	.LVL30:
 316 0050 EFE7     		b	.L15	@
 317              	.L22:
 318 0052 C046     		.align	2
 319              	.L21:
 320 0054 00000000 		.word	.LC2
 321 0058 08000000 		.word	.LC6
 322 005c 0C000000 		.word	.LC10
 323              		.cfi_endproc
 324              	.LFE24:
 325              		.size	terminal_move_cursor.isra.4, .-terminal_move_cursor.isra.4
 326              		.section	.text.terminal_print_line,"ax",%progbits
 327              		.align	2
 328              		.code	16
 329              		.thumb_func
 330              		.type	terminal_print_line, %function
 331              	terminal_print_line:
 332              	.LFB11:
 298:src/microrl.c **** 
 299:src/microrl.c **** //*****************************************************************************
 300:src/microrl.c **** // print cmdline to screen, replace '\0' to wihitespace 
 301:src/microrl.c **** static void terminal_print_line (microrl_t * pThis, int pos, int cursor)
 302:src/microrl.c **** {
 333              		.loc 1 302 0
 334              		.cfi_startproc
 335              	.LVL31:
 336 0000 F0B5     		push	{r4, r5, r6, r7, lr}	@
 337              		.cfi_def_cfa_offset 20
 338              		.cfi_offset 4, -20
 339              		.cfi_offset 5, -16
 340              		.cfi_offset 6, -12
 341              		.cfi_offset 7, -8
 342              		.cfi_offset 14, -4
 343 0002 5F46     		mov	r7, fp	@,
 344 0004 5646     		mov	r6, r10	@,
 345 0006 4D46     		mov	r5, r9	@,
 346 0008 4446     		mov	r4, r8	@,
 303:src/microrl.c ****     pThis->print ("\033[K");    // delete all from cursor to end
 347              		.loc 1 303 0
 348 000a 9423     		mov	r3, #148	@ tmp124,
 302:src/microrl.c ****     pThis->print ("\033[K");    // delete all from cursor to end
 349              		.loc 1 302 0
 350 000c F0B4     		push	{r4, r5, r6, r7}	@
 351              		.cfi_def_cfa_offset 36
 352              		.cfi_offset 8, -36
 353              		.cfi_offset 9, -32
 354              		.cfi_offset 10, -28
 355              		.cfi_offset 11, -24
 356 000e 0D1C     		mov	r5, r1	@ pos, pos
 357 0010 061C     		mov	r6, r0	@ pThis, pThis
 358              		.loc 1 303 0
ARM GAS  /tmp/ccg6nZpr.s 			page 13


 359 0012 C358     		ldr	r3, [r0, r3]	@ pThis_5(D)->print, pThis_5(D)->print
 302:src/microrl.c ****     pThis->print ("\033[K");    // delete all from cursor to end
 360              		.loc 1 302 0
 361 0014 83B0     		sub	sp, sp, #12	@,,
 362              		.cfi_def_cfa_offset 48
 363              		.loc 1 303 0
 364 0016 1948     		ldr	r0, .L33	@,
 365              	.LVL32:
 302:src/microrl.c ****     pThis->print ("\033[K");    // delete all from cursor to end
 366              		.loc 1 302 0
 367 0018 9346     		mov	fp, r2	@ cursor, cursor
 368              		.loc 1 303 0
 369 001a 9847     		blx	r3	@ pThis_5(D)->print
 370              	.LVL33:
 304:src/microrl.c ****     char nch [] = {0,0};
 371              		.loc 1 304 0
 372 001c 0023     		mov	r3, #0	@ tmp128,
 373 001e 2C1C     		mov	r4, r5	@ D.5449, pos
 374 0020 01AF     		add	r7, sp, #4	@ tmp146,,
 375 0022 3B70     		strb	r3, [r7]	@ tmp128, nch
 376 0024 7B70     		strb	r3, [r7, #1]	@ tmp128, nch
 377              	.LVL34:
 305:src/microrl.c ****     int i;
 306:src/microrl.c ****     for (i = pos; i < pThis->cmdlen; i++) {
 378              		.loc 1 306 0
 379 0026 8433     		add	r3, r3, #132	@ tmp133,
 380 0028 F358     		ldr	r3, [r6, r3]	@ pThis_5(D)->cmdlen, pThis_5(D)->cmdlen
 381 002a 5034     		add	r4, r4, #80	@ D.5449,
 382 002c 3419     		add	r4, r6, r4	@ ivtmp.60, pThis, D.5449
 383 002e 9D42     		cmp	r5, r3	@ pos, pThis_5(D)->cmdlen
 384 0030 14DA     		bge	.L28	@,
 307:src/microrl.c ****         nch [0] = pThis->cmdline [i];
 308:src/microrl.c ****         if (nch[0] == '\0')
 309:src/microrl.c ****             nch[0] = ' ';
 385              		.loc 1 309 0
 386 0032 2023     		mov	r3, #32	@ tmp147,
 387 0034 9A46     		mov	r10, r3	@ tmp147, tmp147
 310:src/microrl.c ****         pThis->print (nch);
 388              		.loc 1 310 0
 389 0036 7433     		add	r3, r3, #116	@ tmp148,
 390 0038 9946     		mov	r9, r3	@ tmp148, tmp148
 306:src/microrl.c ****         nch [0] = pThis->cmdline [i];
 391              		.loc 1 306 0
 392 003a 103B     		sub	r3, r3, #16	@ tmp149,
 393 003c 9846     		mov	r8, r3	@ tmp149, tmp149
 394              	.LVL35:
 395              	.L29:
 307:src/microrl.c ****         nch [0] = pThis->cmdline [i];
 396              		.loc 1 307 0
 397 003e 2378     		ldrb	r3, [r4]	@ D.5447, MEM[base: _31, offset: 0B]
 308:src/microrl.c ****             nch[0] = ' ';
 398              		.loc 1 308 0
 399 0040 002B     		cmp	r3, #0	@ D.5447,
 400 0042 00D1     		bne	.L32	@,
 309:src/microrl.c ****         pThis->print (nch);
 401              		.loc 1 309 0
 402 0044 5346     		mov	r3, r10	@ tmp155, tmp147
ARM GAS  /tmp/ccg6nZpr.s 			page 14


 403              	.L32:
 404 0046 3B70     		strb	r3, [r7]	@ tmp155, nch
 405              		.loc 1 310 0
 406 0048 4B46     		mov	r3, r9	@ tmp148, tmp148
 407 004a 381C     		mov	r0, r7	@, tmp146
 408 004c F358     		ldr	r3, [r6, r3]	@ tmp157, pThis_5(D)->print
 409 004e 9847     		blx	r3	@ tmp157
 410              	.LVL36:
 306:src/microrl.c ****         nch [0] = pThis->cmdline [i];
 411              		.loc 1 306 0
 412 0050 4346     		mov	r3, r8	@ tmp149, tmp149
 413 0052 F358     		ldr	r3, [r6, r3]	@ tmp160, pThis_5(D)->cmdlen
 414 0054 0135     		add	r5, r5, #1	@ pos,
 415              	.LVL37:
 416 0056 0134     		add	r4, r4, #1	@ ivtmp.60,
 417 0058 AB42     		cmp	r3, r5	@ tmp160, pos
 418 005a F0DC     		bgt	.L29	@,
 419              	.L28:
 420 005c 9436     		add	r6, r6, #148	@ D.5448,
 421              	.LVL38:
 311:src/microrl.c ****     }
 312:src/microrl.c ****     
 313:src/microrl.c ****     terminal_reset_cursor (pThis);
 422              		.loc 1 313 0
 423 005e 301C     		mov	r0, r6	@, D.5448
 424 0060 FFF7FEFF 		bl	terminal_reset_cursor.isra.3	@
 425              	.LVL39:
 314:src/microrl.c ****     terminal_move_cursor (pThis, cursor);
 426              		.loc 1 314 0
 427 0064 301C     		mov	r0, r6	@, D.5448
 428 0066 5946     		mov	r1, fp	@, cursor
 429 0068 FFF7FEFF 		bl	terminal_move_cursor.isra.4	@
 430              	.LVL40:
 315:src/microrl.c **** }
 431              		.loc 1 315 0
 432 006c 03B0     		add	sp, sp, #12	@,,
 433              		@ sp needed	@
 434              	.LVL41:
 435              	.LVL42:
 436              	.LVL43:
 437 006e 3CBC     		pop	{r2, r3, r4, r5}
 438 0070 9046     		mov	r8, r2
 439 0072 9946     		mov	r9, r3
 440 0074 A246     		mov	r10, r4
 441 0076 AB46     		mov	fp, r5
 442 0078 F0BD     		pop	{r4, r5, r6, r7, pc}
 443              	.L34:
 444 007a C046     		.align	2
 445              	.L33:
 446 007c 10000000 		.word	.LC12
 447              		.cfi_endproc
 448              	.LFE11:
 449              		.size	terminal_print_line, .-terminal_print_line
 450              		.section	.text.hist_search,"ax",%progbits
 451              		.align	2
 452              		.code	16
 453              		.thumb_func
ARM GAS  /tmp/ccg6nZpr.s 			page 15


 454              		.type	hist_search, %function
 455              	hist_search:
 456              	.LFB15:
 316:src/microrl.c **** 
 317:src/microrl.c **** //*****************************************************************************
 318:src/microrl.c **** void microrl_init (microrl_t * pThis, uint32_t (*print) (const char *)) 
 319:src/microrl.c **** {
 320:src/microrl.c ****     (void)hist_save_line;
 321:src/microrl.c ****     memset(pThis->cmdline, 0, _COMMAND_LINE_LEN);
 322:src/microrl.c **** #ifdef _USE_HISTORY
 323:src/microrl.c ****     memset(pThis->ring_hist.ring_buf, 0, _RING_HISTORY_LEN);
 324:src/microrl.c ****     pThis->ring_hist.begin = 0;
 325:src/microrl.c ****     pThis->ring_hist.end = 0;
 326:src/microrl.c ****     pThis->ring_hist.cur = 0;
 327:src/microrl.c **** #endif
 328:src/microrl.c ****     pThis->cmdlen =0;
 329:src/microrl.c ****     pThis->cursor = 0;
 330:src/microrl.c ****     pThis->execute = NULL;
 331:src/microrl.c ****     pThis->get_completion = NULL;
 332:src/microrl.c **** #ifdef _USE_CTLR_C
 333:src/microrl.c ****     pThis->sigint = NULL;
 334:src/microrl.c **** #endif
 335:src/microrl.c ****     pThis->prompt_str = " > ";
 336:src/microrl.c ****     pThis->print = print;
 337:src/microrl.c **** #ifdef _ENABLE_INIT_PROMPT
 338:src/microrl.c ****     print_prompt (pThis);
 339:src/microrl.c **** #endif
 340:src/microrl.c **** }
 341:src/microrl.c **** 
 342:src/microrl.c **** //*****************************************************************************
 343:src/microrl.c **** void microrl_set_complete_callback (microrl_t * pThis, char ** (*get_completion)(int, const char* c
 344:src/microrl.c **** {
 345:src/microrl.c ****     pThis->get_completion = get_completion;
 346:src/microrl.c **** }
 347:src/microrl.c **** 
 348:src/microrl.c **** //*****************************************************************************
 349:src/microrl.c **** void microrl_set_execute_callback (microrl_t * pThis, void (*execute)(int32_t, const char* const*))
 350:src/microrl.c **** {
 351:src/microrl.c ****     pThis->execute = execute;
 352:src/microrl.c **** }
 353:src/microrl.c **** #ifdef _USE_CTLR_C
 354:src/microrl.c **** //*****************************************************************************
 355:src/microrl.c **** void microrl_set_sigint_callback (microrl_t * pThis, void (*sigintf)(void))
 356:src/microrl.c **** {
 357:src/microrl.c ****     pThis->sigint = sigintf;
 358:src/microrl.c **** }
 359:src/microrl.c **** #endif
 360:src/microrl.c **** 
 361:src/microrl.c **** 
 362:src/microrl.c **** #ifdef _USE_HISTORY
 363:src/microrl.c **** 
 364:src/microrl.c **** static void hist_search (microrl_t * pThis, int dir)
 365:src/microrl.c **** {
 457              		.loc 1 365 0
 458              		.cfi_startproc
 459              	.LVL44:
 460 0000 F8B5     		push	{r3, r4, r5, r6, r7, lr}	@
ARM GAS  /tmp/ccg6nZpr.s 			page 16


 461              		.cfi_def_cfa_offset 24
 462              		.cfi_offset 3, -24
 463              		.cfi_offset 4, -20
 464              		.cfi_offset 5, -16
 465              		.cfi_offset 6, -12
 466              		.cfi_offset 7, -8
 467              		.cfi_offset 14, -4
 468 0002 4646     		mov	r6, r8	@,
 469 0004 4F46     		mov	r7, r9	@,
 470 0006 8046     		mov	r8, r0	@ pThis, pThis
 366:src/microrl.c ****     int len = hist_restore_line (&pThis->ring_hist, pThis->cmdline, dir);
 471              		.loc 1 366 0
 472 0008 5023     		mov	r3, #80	@ D.5479,
 365:src/microrl.c ****     int len = hist_restore_line (&pThis->ring_hist, pThis->cmdline, dir);
 473              		.loc 1 365 0
 474 000a C0B4     		push	{r6, r7}	@
 475              		.cfi_def_cfa_offset 32
 476              		.cfi_offset 8, -32
 477              		.cfi_offset 9, -28
 478              	.LBB22:
 479              	.LBB23:
 120:src/microrl.c ****     while (pThis->ring_buf [header] != 0) {
 480              		.loc 1 120 0
 481 000c 056C     		ldr	r5, [r0, #64]	@ header, MEM[(struct ring_history_t *)pThis_2(D)].begin
 482              	.LBE23:
 483              	.LBE22:
 484              		.loc 1 366 0
 485 000e 4344     		add	r3, r3, r8	@ D.5479, pThis
 486              	.LBB36:
 487              	.LBB32:
 121:src/microrl.c ****         header += pThis->ring_buf [header] + 1;
 488              		.loc 1 121 0
 489 0010 465D     		ldrb	r6, [r0, r5]	@ D.5482, MEM[(struct ring_history_t *)pThis_2(D)]
 490              	.LBE32:
 491              	.LBE36:
 492              		.loc 1 366 0
 493 0012 9946     		mov	r9, r3	@ D.5479, D.5479
 494              	.LVL45:
 495              	.LBB37:
 496              	.LBB33:
 121:src/microrl.c ****         header += pThis->ring_buf [header] + 1;
 497              		.loc 1 121 0
 498 0014 002E     		cmp	r6, #0	@ D.5482,
 499 0016 00D1     		bne	.LCB425	@
 500 0018 8DE0     		b	.L54	@long jump	@
 501              	.LCB425:
 502 001a 2C1C     		mov	r4, r5	@ header, header
 503 001c 331C     		mov	r3, r6	@ D.5482, D.5482
 504              	.LVL46:
 505 001e 0027     		mov	r7, #0	@ cnt,
 506              	.LVL47:
 507              	.L38:
 122:src/microrl.c ****         if (header >= _RING_HISTORY_LEN)
 508              		.loc 1 122 0
 509 0020 0133     		add	r3, r3, #1	@ D.5481,
 510 0022 E418     		add	r4, r4, r3	@ header, header, D.5481
 511              	.LVL48:
ARM GAS  /tmp/ccg6nZpr.s 			page 17


 123:src/microrl.c ****             header -= _RING_HISTORY_LEN; 
 512              		.loc 1 123 0
 513 0024 3F2C     		cmp	r4, #63	@ header,
 514 0026 00DD     		ble	.L37	@,
 124:src/microrl.c ****         cnt++;
 515              		.loc 1 124 0
 516 0028 403C     		sub	r4, r4, #64	@ header,
 517              	.LVL49:
 518              	.L37:
 121:src/microrl.c ****         header += pThis->ring_buf [header] + 1;
 519              		.loc 1 121 0
 520 002a 4346     		mov	r3, r8	@ pThis, pThis
 521 002c 1B5D     		ldrb	r3, [r3, r4]	@ D.5482, MEM[(struct ring_history_t *)pThis_2(D)]
 125:src/microrl.c ****     }
 522              		.loc 1 125 0
 523 002e 0137     		add	r7, r7, #1	@ cnt,
 524              	.LVL50:
 121:src/microrl.c ****         header += pThis->ring_buf [header] + 1;
 525              		.loc 1 121 0
 526 0030 002B     		cmp	r3, #0	@ D.5482,
 527 0032 F5D1     		bne	.L38	@,
 528              	.LVL51:
 529              	.L36:
 129:src/microrl.c ****             int header = pThis->begin;
 530              		.loc 1 129 0
 531 0034 4346     		mov	r3, r8	@ pThis, pThis
 128:src/microrl.c ****         if (cnt >= pThis->cur) {
 532              		.loc 1 128 0
 533 0036 0029     		cmp	r1, #0	@ dir,
 534 0038 1AD1     		bne	.L39	@,
 129:src/microrl.c ****             int header = pThis->begin;
 535              		.loc 1 129 0
 536 003a 9A6C     		ldr	r2, [r3, #72]	@ D.5481, MEM[(struct ring_history_t *)pThis_2(D)].cur
 537 003c BA42     		cmp	r2, r7	@ D.5481, cnt
 538 003e 13DC     		bgt	.L35	@,
 539              	.LVL52:
 540              	.LBB24:
 133:src/microrl.c ****                 header += pThis->ring_buf [header] + 1;
 541              		.loc 1 133 0
 542 0040 002E     		cmp	r6, #0	@ D.5482,
 543 0042 11D0     		beq	.L35	@,
 544 0044 7B1E     		sub	r3, r7, #1	@ D.5481, cnt,
 545 0046 9A42     		cmp	r2, r3	@ D.5481, D.5481
 546 0048 04D1     		bne	.L43	@,
 547 004a 28E0     		b	.L41	@
 548              	.LVL53:
 549              	.L74:
 550 004c CB43     		mvn	r3, r1	@ D.5488, j
 551 004e DB19     		add	r3, r3, r7	@ D.5488, D.5488, cnt
 552 0050 9A42     		cmp	r2, r3	@ D.5481, D.5488
 553 0052 24D0     		beq	.L41	@,
 554              	.LVL54:
 555              	.L43:
 134:src/microrl.c ****                 if (header >= _RING_HISTORY_LEN)
 556              		.loc 1 134 0
 557 0054 0136     		add	r6, r6, #1	@ D.5481,
 558 0056 AD19     		add	r5, r5, r6	@ header, header, D.5481
ARM GAS  /tmp/ccg6nZpr.s 			page 18


 559              	.LVL55:
 135:src/microrl.c ****                     header -= _RING_HISTORY_LEN;
 560              		.loc 1 135 0
 561 0058 3F2D     		cmp	r5, #63	@ header,
 562 005a 00DD     		ble	.L42	@,
 136:src/microrl.c ****                 j++;
 563              		.loc 1 136 0
 564 005c 403D     		sub	r5, r5, #64	@ header,
 565              	.LVL56:
 566              	.L42:
 133:src/microrl.c ****                 header += pThis->ring_buf [header] + 1;
 567              		.loc 1 133 0
 568 005e 4346     		mov	r3, r8	@ pThis, pThis
 569 0060 5E5D     		ldrb	r6, [r3, r5]	@ D.5482, MEM[(struct ring_history_t *)pThis_2(D)]
 137:src/microrl.c ****             }
 570              		.loc 1 137 0
 571 0062 0131     		add	r1, r1, #1	@ j,
 572              	.LVL57:
 133:src/microrl.c ****                 header += pThis->ring_buf [header] + 1;
 573              		.loc 1 133 0
 574 0064 002E     		cmp	r6, #0	@ D.5482,
 575 0066 F1D1     		bne	.L74	@,
 576              	.LVL58:
 577              	.L35:
 578              	.LBE24:
 579              	.LBE33:
 580              	.LBE37:
 367:src/microrl.c ****     if (len >= 0) {
 368:src/microrl.c ****         pThis->cursor = pThis->cmdlen = len;
 369:src/microrl.c ****         terminal_reset_cursor (pThis);
 370:src/microrl.c ****         terminal_print_line (pThis, 0, pThis->cursor);
 371:src/microrl.c ****     }
 372:src/microrl.c **** }
 581              		.loc 1 372 0
 582              		@ sp needed	@
 583              	.LVL59:
 584              	.LVL60:
 585 0068 0CBC     		pop	{r2, r3}
 586 006a 9046     		mov	r8, r2
 587 006c 9946     		mov	r9, r3
 588 006e F8BD     		pop	{r3, r4, r5, r6, r7, pc}
 589              	.LVL61:
 590              	.L39:
 591              	.LBB38:
 592              	.LBB34:
 155:src/microrl.c ****                 pThis->cur--;
 593              		.loc 1 155 0
 594 0070 9B6C     		ldr	r3, [r3, #72]	@ D.5481, MEM[(struct ring_history_t *)pThis_2(D)].cur
 595 0072 002B     		cmp	r3, #0	@ D.5481,
 596 0074 5DDD     		ble	.L55	@,
 597              	.LBB26:
 156:src/microrl.c ****             int header = pThis->begin;
 598              		.loc 1 156 0
 599 0076 4246     		mov	r2, r8	@ pThis, pThis
 600 0078 013B     		sub	r3, r3, #1	@ D.5481,
 601 007a 9364     		str	r3, [r2, #72]	@ D.5481, MEM[(struct ring_history_t *)pThis_2(D)].cur
 602              	.LVL62:
ARM GAS  /tmp/ccg6nZpr.s 			page 19


 160:src/microrl.c ****                 header += pThis->ring_buf [header] + 1;
 603              		.loc 1 160 0
 604 007c 002E     		cmp	r6, #0	@ D.5482,
 605 007e 0AD1     		bne	.L71	@,
 606 0080 44E0     		b	.L57	@
 607              	.LVL63:
 608              	.L62:
 161:src/microrl.c ****                 if (header >= _RING_HISTORY_LEN)
 609              		.loc 1 161 0
 610 0082 0136     		add	r6, r6, #1	@ D.5481,
 611 0084 AD19     		add	r5, r5, r6	@ header, header, D.5481
 612              	.LVL64:
 162:src/microrl.c ****                     header -= _RING_HISTORY_LEN;
 613              		.loc 1 162 0
 614 0086 3F2D     		cmp	r5, #63	@ header,
 615 0088 00DD     		ble	.L48	@,
 163:src/microrl.c ****                 j++;
 616              		.loc 1 163 0
 617 008a 403D     		sub	r5, r5, #64	@ header,
 618              	.LVL65:
 619              	.L48:
 160:src/microrl.c ****                 header += pThis->ring_buf [header] + 1;
 620              		.loc 1 160 0
 621 008c 4246     		mov	r2, r8	@ pThis, pThis
 622 008e 565D     		ldrb	r6, [r2, r5]	@ D.5482, MEM[(struct ring_history_t *)pThis_2(D)]
 623 0090 002E     		cmp	r6, #0	@ D.5482,
 624 0092 3BD0     		beq	.L57	@,
 625 0094 013F     		sub	r7, r7, #1	@ ivtmp.73,
 626              	.L71:
 627 0096 BB42     		cmp	r3, r7	@ D.5481, ivtmp.73
 628 0098 F3D1     		bne	.L62	@,
 629 009a 341C     		mov	r4, r6	@ D.5481, D.5482
 630 009c 37E0     		b	.L46	@
 631              	.LVL66:
 632              	.L41:
 633              	.LBE26:
 634              	.LBB28:
 140:src/microrl.c ****                 // obtain saved line
 635              		.loc 1 140 0
 636 009e 4346     		mov	r3, r8	@ pThis, pThis
 637 00a0 0132     		add	r2, r2, #1	@ D.5481,
 638 00a2 9A64     		str	r2, [r3, #72]	@ D.5481, MEM[(struct ring_history_t *)pThis_2(D)].cur
 142:src/microrl.c ****                     memset (line, 0, _COMMAND_LINE_LEN);
 639              		.loc 1 142 0
 640 00a4 AB19     		add	r3, r5, r6	@ D.5481, header, D.5482
 641 00a6 3F2B     		cmp	r3, #63	@ D.5481,
 642 00a8 24DD     		ble	.L52	@,
 643              	.LBB25:
 146:src/microrl.c ****                     memset (line, 0, _COMMAND_LINE_LEN);
 644              		.loc 1 146 0
 645 00aa 3F24     		mov	r4, #63	@ tmp190,
 147:src/microrl.c ****                     memcpy (line, pThis->ring_buf + header + 1, part0);
 646              		.loc 1 147 0
 647 00ac 0021     		mov	r1, #0	@,
 648 00ae 3322     		mov	r2, #51	@,
 649 00b0 4846     		mov	r0, r9	@, D.5479
 650              	.LVL67:
ARM GAS  /tmp/ccg6nZpr.s 			page 20


 651 00b2 FFF7FEFF 		bl	memset	@
 652              	.LVL68:
 146:src/microrl.c ****                     memset (line, 0, _COMMAND_LINE_LEN);
 653              		.loc 1 146 0
 654 00b6 641B     		sub	r4, r4, r5	@ part0, tmp190, header
 655              	.LVL69:
 148:src/microrl.c ****                     memcpy (line + part0, pThis->ring_buf, pThis->ring_buf[header] - part0);
 656              		.loc 1 148 0
 657 00b8 691C     		add	r1, r5, #1	@ D.5483, header,
 658 00ba 4144     		add	r1, r1, r8	@ tmp196, pThis
 659 00bc 221C     		mov	r2, r4	@, part0
 660 00be 4846     		mov	r0, r9	@, D.5479
 661 00c0 FFF7FEFF 		bl	memcpy	@
 662              	.LVL70:
 149:src/microrl.c ****                 }
 663              		.loc 1 149 0
 664 00c4 4B46     		mov	r3, r9	@ D.5479, D.5479
 665 00c6 321B     		sub	r2, r6, r4	@ D.5481, D.5482, part0
 666 00c8 1819     		add	r0, r3, r4	@ D.5486, D.5479, part0
 667 00ca 4146     		mov	r1, r8	@, pThis
 668 00cc FFF7FEFF 		bl	memcpy	@
 669              	.LVL71:
 670              	.L51:
 671              	.LBE25:
 672              	.LBE28:
 673              	.LBB29:
 173:src/microrl.c ****         } else {
 674              		.loc 1 173 0
 675 00d0 4346     		mov	r3, r8	@ pThis, pThis
 676 00d2 5B5D     		ldrb	r3, [r3, r5]	@ D.5481, MEM[(struct ring_history_t *)pThis_2(D)]
 677              	.L45:
 678              	.LBE29:
 679              	.LBE34:
 680              	.LBE38:
 368:src/microrl.c ****         terminal_reset_cursor (pThis);
 681              		.loc 1 368 0
 682 00d4 4146     		mov	r1, r8	@ pThis, pThis
 683 00d6 8422     		mov	r2, #132	@ tmp235,
 684 00d8 8824     		mov	r4, #136	@ tmp236,
 685 00da 4046     		mov	r0, r8	@ D.5480, pThis
 686 00dc 8B50     		str	r3, [r1, r2]	@ D.5481, pThis_2(D)->cmdlen
 687 00de 9430     		add	r0, r0, #148	@ D.5480,
 688 00e0 0B51     		str	r3, [r1, r4]	@ D.5481, pThis_2(D)->cursor
 369:src/microrl.c ****         terminal_print_line (pThis, 0, pThis->cursor);
 689              		.loc 1 369 0
 690 00e2 FFF7FEFF 		bl	terminal_reset_cursor.isra.3	@
 691              	.LVL72:
 370:src/microrl.c ****     }
 692              		.loc 1 370 0
 693 00e6 4346     		mov	r3, r8	@ pThis, pThis
 694 00e8 4046     		mov	r0, r8	@, pThis
 695 00ea 1A59     		ldr	r2, [r3, r4]	@ pThis_2(D)->cursor, pThis_2(D)->cursor
 696 00ec 0021     		mov	r1, #0	@,
 697 00ee FFF7FEFF 		bl	terminal_print_line	@
 698              	.LVL73:
 699 00f2 B9E7     		b	.L35	@
 700              	.LVL74:
ARM GAS  /tmp/ccg6nZpr.s 			page 21


 701              	.L52:
 702              	.LBB39:
 703              	.LBB35:
 704              	.LBB30:
 143:src/microrl.c ****                     memcpy (line, pThis->ring_buf + header + 1, pThis->ring_buf[header]);
 705              		.loc 1 143 0
 706 00f4 4846     		mov	r0, r9	@, D.5479
 707              	.LVL75:
 708 00f6 0021     		mov	r1, #0	@,
 709 00f8 3322     		mov	r2, #51	@,
 710 00fa FFF7FEFF 		bl	memset	@
 711              	.LVL76:
 712              	.L72:
 713              	.LBE30:
 714              	.LBB31:
 167:src/microrl.c ****             } else {
 715              		.loc 1 167 0
 716 00fe 691C     		add	r1, r5, #1	@ D.5483, header,
 717 0100 4144     		add	r1, r1, r8	@ tmp212, pThis
 718 0102 4846     		mov	r0, r9	@, D.5479
 719 0104 321C     		mov	r2, r6	@, D.5482
 720 0106 FFF7FEFF 		bl	memcpy	@
 721              	.LVL77:
 722 010a E1E7     		b	.L51	@
 723              	.LVL78:
 724              	.L57:
 160:src/microrl.c ****                 header += pThis->ring_buf [header] + 1;
 725              		.loc 1 160 0
 726 010c 0024     		mov	r4, #0	@ D.5481,
 727              	.L46:
 166:src/microrl.c ****                 memcpy (line, pThis->ring_buf + header + 1, pThis->ring_buf[header]);
 728              		.loc 1 166 0
 729 010e 2B19     		add	r3, r5, r4	@ D.5481, header, D.5481
 730 0110 3F2B     		cmp	r3, #63	@ D.5481,
 731 0112 F4DD     		ble	.L72	@,
 732              	.LBB27:
 169:src/microrl.c ****                 memcpy (line, pThis->ring_buf + header + 1, part0);
 733              		.loc 1 169 0
 734 0114 3F22     		mov	r2, #63	@ tmp218,
 170:src/microrl.c ****                 memcpy (line + part0, pThis->ring_buf, pThis->ring_buf[header] - part0);
 735              		.loc 1 170 0
 736 0116 691C     		add	r1, r5, #1	@ D.5483, header,
 737              	.LVL79:
 169:src/microrl.c ****                 memcpy (line, pThis->ring_buf + header + 1, part0);
 738              		.loc 1 169 0
 739 0118 561B     		sub	r6, r2, r5	@ part0, tmp218, header
 740              	.LVL80:
 170:src/microrl.c ****                 memcpy (line + part0, pThis->ring_buf, pThis->ring_buf[header] - part0);
 741              		.loc 1 170 0
 742 011a 4144     		add	r1, r1, r8	@ tmp220, pThis
 743 011c 321C     		mov	r2, r6	@, part0
 744 011e 4846     		mov	r0, r9	@, D.5479
 745              	.LVL81:
 746 0120 FFF7FEFF 		bl	memcpy	@
 747              	.LVL82:
 171:src/microrl.c ****             }
 748              		.loc 1 171 0
ARM GAS  /tmp/ccg6nZpr.s 			page 22


 749 0124 4B46     		mov	r3, r9	@ D.5479, D.5479
 750 0126 A21B     		sub	r2, r4, r6	@ D.5481, D.5481, part0
 751 0128 9819     		add	r0, r3, r6	@ D.5486, D.5479, part0
 752 012a 4146     		mov	r1, r8	@, pThis
 753 012c FFF7FEFF 		bl	memcpy	@
 754              	.LVL83:
 755 0130 CEE7     		b	.L51	@
 756              	.LVL84:
 757              	.L55:
 758              	.LBE27:
 759              	.LBE31:
 176:src/microrl.c ****         }
 760              		.loc 1 176 0
 761 0132 0023     		mov	r3, #0	@ D.5481,
 762 0134 CEE7     		b	.L45	@
 763              	.LVL85:
 764              	.L54:
 118:src/microrl.c ****     // count history record 
 765              		.loc 1 118 0
 766 0136 0027     		mov	r7, #0	@ cnt,
 767 0138 7CE7     		b	.L36	@
 768              	.LBE35:
 769              	.LBE39:
 770              		.cfi_endproc
 771              	.LFE15:
 772              		.size	hist_search, .-hist_search
 773 013a C046     		.section	.text.microrl_backspace.part.5,"ax",%progbits
 774              		.align	2
 775              		.code	16
 776              		.thumb_func
 777              		.type	microrl_backspace.part.5, %function
 778              	microrl_backspace.part.5:
 779              	.LFB25:
 373:src/microrl.c **** #endif
 374:src/microrl.c **** #ifdef _USE_ESC_SEQ
 375:src/microrl.c **** //*****************************************************************************
 376:src/microrl.c **** // handling escape sequences
 377:src/microrl.c **** static int escape_process (microrl_t * pThis, char ch)
 378:src/microrl.c **** {
 379:src/microrl.c ****     if (ch == '[') {
 380:src/microrl.c ****         pThis->escape_seq = _ESC_BRACKET;
 381:src/microrl.c ****         return 0;
 382:src/microrl.c ****     } else if (pThis->escape_seq == _ESC_BRACKET) {
 383:src/microrl.c ****         if (ch == 'A') {
 384:src/microrl.c **** #ifdef _USE_HISTORY
 385:src/microrl.c ****             hist_search (pThis, _HIST_UP);
 386:src/microrl.c **** #endif
 387:src/microrl.c ****             return 1;
 388:src/microrl.c ****         } else if (ch == 'B') {
 389:src/microrl.c **** #ifdef _USE_HISTORY
 390:src/microrl.c ****             hist_search (pThis, _HIST_DOWN);
 391:src/microrl.c **** #endif
 392:src/microrl.c ****             return 1;
 393:src/microrl.c ****         } else if (ch == 'C') {
 394:src/microrl.c ****             if (pThis->cursor < pThis->cmdlen) {
 395:src/microrl.c ****                 terminal_move_cursor (pThis, 1);
 396:src/microrl.c ****                 pThis->cursor++;
ARM GAS  /tmp/ccg6nZpr.s 			page 23


 397:src/microrl.c ****             }
 398:src/microrl.c ****             return 1;
 399:src/microrl.c ****         } else if (ch == 'D') {
 400:src/microrl.c ****             if (pThis->cursor > 0) {
 401:src/microrl.c ****                 terminal_move_cursor (pThis, -1);
 402:src/microrl.c ****                 pThis->cursor--;
 403:src/microrl.c ****             }
 404:src/microrl.c ****             return 1;
 405:src/microrl.c ****         } else if (ch == '7') {
 406:src/microrl.c ****             pThis->escape_seq = _ESC_HOME;
 407:src/microrl.c ****             return 0;
 408:src/microrl.c ****         } else if (ch == '8') {
 409:src/microrl.c ****             pThis->escape_seq = _ESC_END;
 410:src/microrl.c ****             return 0;
 411:src/microrl.c ****         } 
 412:src/microrl.c ****     } else if (ch == '~') {
 413:src/microrl.c ****         if (pThis->escape_seq == _ESC_HOME) {
 414:src/microrl.c ****             terminal_reset_cursor (pThis);
 415:src/microrl.c ****             pThis->cursor = 0;
 416:src/microrl.c ****             return 1;
 417:src/microrl.c ****         } else if (pThis->escape_seq == _ESC_END) {
 418:src/microrl.c ****             terminal_move_cursor (pThis, pThis->cmdlen-pThis->cursor);
 419:src/microrl.c ****             pThis->cursor = pThis->cmdlen;
 420:src/microrl.c ****             return 1;
 421:src/microrl.c ****         }
 422:src/microrl.c ****     }
 423:src/microrl.c **** 
 424:src/microrl.c ****     /* unknown escape sequence, stop */
 425:src/microrl.c ****     return 1;
 426:src/microrl.c **** }
 427:src/microrl.c **** #endif
 428:src/microrl.c **** 
 429:src/microrl.c **** //*****************************************************************************
 430:src/microrl.c **** // insert len char of text at cursor position
 431:src/microrl.c **** static int microrl_insert_text (microrl_t * pThis, char * text, int len)
 432:src/microrl.c **** {
 433:src/microrl.c ****     int i;
 434:src/microrl.c ****     if (pThis->cmdlen + len < _COMMAND_LINE_LEN) {
 435:src/microrl.c ****         memmove (pThis->cmdline + pThis->cursor + len,
 436:src/microrl.c ****                          pThis->cmdline + pThis->cursor,
 437:src/microrl.c ****                          pThis->cmdlen - pThis->cursor);
 438:src/microrl.c ****         for (i = 0; i < len; i++) {
 439:src/microrl.c ****             pThis->cmdline [pThis->cursor + i] = text [i];
 440:src/microrl.c ****             if (pThis->cmdline [pThis->cursor + i] == ' ') {
 441:src/microrl.c ****                 pThis->cmdline [pThis->cursor + i] = 0;
 442:src/microrl.c ****             }
 443:src/microrl.c ****         }
 444:src/microrl.c ****         pThis->cursor += len;
 445:src/microrl.c ****         pThis->cmdlen += len;
 446:src/microrl.c ****         pThis->cmdline [pThis->cmdlen] = '\0';
 447:src/microrl.c ****         return true;
 448:src/microrl.c ****     }
 449:src/microrl.c ****     return false;
 450:src/microrl.c **** }
 451:src/microrl.c **** 
 452:src/microrl.c **** //*****************************************************************************
 453:src/microrl.c **** // remove one char at cursor
ARM GAS  /tmp/ccg6nZpr.s 			page 24


 454:src/microrl.c **** static void microrl_backspace (microrl_t * pThis)
 780              		.loc 1 454 0
 781              		.cfi_startproc
 782              	.LVL86:
 783 0000 9423     		mov	r3, #148	@ tmp125,
 784 0002 70B5     		push	{r4, r5, r6, lr}	@
 785              		.cfi_def_cfa_offset 16
 786              		.cfi_offset 4, -16
 787              		.cfi_offset 5, -12
 788              		.cfi_offset 6, -8
 789              		.cfi_offset 14, -4
 790              		.loc 1 454 0
 791 0004 041C     		mov	r4, r0	@ pThis, pThis
 455:src/microrl.c **** {
 456:src/microrl.c ****     if (pThis->cursor > 0) {
 457:src/microrl.c ****         terminal_backspace (pThis);
 458:src/microrl.c ****         memmove (pThis->cmdline + pThis->cursor-1,
 792              		.loc 1 458 0
 793 0006 8826     		mov	r6, #136	@ tmp128,
 794              	.LBB40:
 795              	.LBB41:
 222:src/microrl.c **** }
 796              		.loc 1 222 0
 797 0008 C358     		ldr	r3, [r0, r3]	@ MEM[(uint32_t (*<Tf33>) (const char *) *)pThis_1(D) + 148B], MEM[(uint32_t (*<T
 798 000a 0D48     		ldr	r0, .L76	@,
 799              	.LVL87:
 800 000c 9847     		blx	r3	@ MEM[(uint32_t (*<Tf33>) (const char *) *)pThis_1(D) + 148B]
 801              	.LVL88:
 802              	.LBE41:
 803              	.LBE40:
 459:src/microrl.c ****                          pThis->cmdline + pThis->cursor,
 460:src/microrl.c ****                          pThis->cmdlen-pThis->cursor+1);
 804              		.loc 1 460 0
 805 000e 8425     		mov	r5, #132	@ tmp134,
 458:src/microrl.c ****                          pThis->cmdline + pThis->cursor,
 806              		.loc 1 458 0
 807 0010 A259     		ldr	r2, [r4, r6]	@ D.5515, pThis_1(D)->cursor
 808              		.loc 1 460 0
 809 0012 6359     		ldr	r3, [r4, r5]	@ tmp152, pThis_1(D)->cmdlen
 458:src/microrl.c ****                          pThis->cmdline + pThis->cursor,
 810              		.loc 1 458 0
 811 0014 101C     		mov	r0, r2	@ tmp130, D.5515
 812 0016 111C     		mov	r1, r2	@ tmp132, D.5515
 813 0018 4F30     		add	r0, r0, #79	@ tmp130,
 814              		.loc 1 460 0
 815 001a 9A1A     		sub	r2, r3, r2	@ D.5515, tmp152, D.5515
 458:src/microrl.c ****                          pThis->cmdline + pThis->cursor,
 816              		.loc 1 458 0
 817 001c 5031     		add	r1, r1, #80	@ tmp132,
 818 001e 6118     		add	r1, r4, r1	@ tmp133, pThis, tmp132
 819 0020 2018     		add	r0, r4, r0	@ tmp131, pThis, tmp130
 820              		.loc 1 460 0
 821 0022 0132     		add	r2, r2, #1	@ D.5515,
 458:src/microrl.c ****                          pThis->cmdline + pThis->cursor,
 822              		.loc 1 458 0
 823 0024 FFF7FEFF 		bl	memmove	@
 824              	.LVL89:
ARM GAS  /tmp/ccg6nZpr.s 			page 25


 461:src/microrl.c ****         pThis->cursor--;
 462:src/microrl.c ****         pThis->cmdline [pThis->cmdlen] = '\0';
 825              		.loc 1 462 0
 826 0028 0021     		mov	r1, #0	@ tmp146,
 461:src/microrl.c ****         pThis->cursor--;
 827              		.loc 1 461 0
 828 002a A359     		ldr	r3, [r4, r6]	@ tmp153, pThis_1(D)->cursor
 463:src/microrl.c ****         pThis->cmdlen--;
 464:src/microrl.c ****     }
 465:src/microrl.c **** }
 829              		.loc 1 465 0
 830              		@ sp needed	@
 461:src/microrl.c ****         pThis->cursor--;
 831              		.loc 1 461 0
 832 002c 013B     		sub	r3, r3, #1	@ D.5515,
 833 002e A351     		str	r3, [r4, r6]	@ D.5515, pThis_1(D)->cursor
 462:src/microrl.c ****         pThis->cmdlen--;
 834              		.loc 1 462 0
 835 0030 6359     		ldr	r3, [r4, r5]	@ D.5515, pThis_1(D)->cmdlen
 836 0032 E218     		add	r2, r4, r3	@ tmp144, pThis, D.5515
 837 0034 5032     		add	r2, r2, #80	@ tmp145,
 463:src/microrl.c ****         pThis->cmdlen--;
 838              		.loc 1 463 0
 839 0036 013B     		sub	r3, r3, #1	@ D.5515,
 462:src/microrl.c ****         pThis->cmdlen--;
 840              		.loc 1 462 0
 841 0038 1170     		strb	r1, [r2]	@ tmp146, pThis_1(D)->cmdline
 463:src/microrl.c ****         pThis->cmdlen--;
 842              		.loc 1 463 0
 843 003a 6351     		str	r3, [r4, r5]	@ D.5515, pThis_1(D)->cmdlen
 844              	.LVL90:
 845              		.loc 1 465 0
 846 003c 70BD     		pop	{r4, r5, r6, pc}
 847              	.L77:
 848 003e C046     		.align	2
 849              	.L76:
 850 0040 14000000 		.word	.LC14
 851              		.cfi_endproc
 852              	.LFE25:
 853              		.size	microrl_backspace.part.5, .-microrl_backspace.part.5
 854              		.section	.text.microrl_init,"ax",%progbits
 855              		.align	2
 856              		.global	microrl_init
 857              		.code	16
 858              		.thumb_func
 859              		.type	microrl_init, %function
 860              	microrl_init:
 861              	.LFB12:
 319:src/microrl.c ****     (void)hist_save_line;
 862              		.loc 1 319 0
 863              		.cfi_startproc
 864              	.LVL91:
 865 0000 38B5     		push	{r3, r4, r5, lr}	@
 866              		.cfi_def_cfa_offset 16
 867              		.cfi_offset 3, -16
 868              		.cfi_offset 4, -12
 869              		.cfi_offset 5, -8
ARM GAS  /tmp/ccg6nZpr.s 			page 26


 870              		.cfi_offset 14, -4
 319:src/microrl.c ****     (void)hist_save_line;
 871              		.loc 1 319 0
 872 0002 041C     		mov	r4, r0	@ pThis, pThis
 873 0004 0D1C     		mov	r5, r1	@ print, print
 321:src/microrl.c **** #ifdef _USE_HISTORY
 874              		.loc 1 321 0
 875 0006 3322     		mov	r2, #51	@,
 876 0008 0021     		mov	r1, #0	@,
 877              	.LVL92:
 878 000a 5030     		add	r0, r0, #80	@ tmp114,
 879              	.LVL93:
 880 000c FFF7FEFF 		bl	memset	@
 881              	.LVL94:
 323:src/microrl.c ****     pThis->ring_hist.begin = 0;
 882              		.loc 1 323 0
 883 0010 0021     		mov	r1, #0	@,
 884 0012 201C     		mov	r0, r4	@, pThis
 885 0014 4022     		mov	r2, #64	@,
 886 0016 FFF7FEFF 		bl	memset	@
 887              	.LVL95:
 324:src/microrl.c ****     pThis->ring_hist.end = 0;
 888              		.loc 1 324 0
 889 001a 0023     		mov	r3, #0	@ tmp125,
 328:src/microrl.c ****     pThis->cursor = 0;
 890              		.loc 1 328 0
 891 001c 8422     		mov	r2, #132	@ tmp128,
 324:src/microrl.c ****     pThis->ring_hist.end = 0;
 892              		.loc 1 324 0
 893 001e 2364     		str	r3, [r4, #64]	@ tmp125, pThis_1(D)->ring_hist.begin
 325:src/microrl.c ****     pThis->ring_hist.cur = 0;
 894              		.loc 1 325 0
 895 0020 6364     		str	r3, [r4, #68]	@ tmp125, pThis_1(D)->ring_hist.end
 326:src/microrl.c **** #endif
 896              		.loc 1 326 0
 897 0022 A364     		str	r3, [r4, #72]	@ tmp125, pThis_1(D)->ring_hist.cur
 328:src/microrl.c ****     pThis->cursor = 0;
 898              		.loc 1 328 0
 899 0024 A350     		str	r3, [r4, r2]	@ tmp125, pThis_1(D)->cmdlen
 329:src/microrl.c ****     pThis->execute = NULL;
 900              		.loc 1 329 0
 901 0026 0432     		add	r2, r2, #4	@ tmp130,
 902 0028 A350     		str	r3, [r4, r2]	@ tmp125, pThis_1(D)->cursor
 330:src/microrl.c ****     pThis->get_completion = NULL;
 903              		.loc 1 330 0
 904 002a 0432     		add	r2, r2, #4	@ tmp132,
 905 002c A350     		str	r3, [r4, r2]	@ tmp125, pThis_1(D)->execute
 335:src/microrl.c ****     pThis->print = print;
 906              		.loc 1 335 0
 907 002e 0448     		ldr	r0, .L79	@ tmp136,
 331:src/microrl.c **** #ifdef _USE_CTLR_C
 908              		.loc 1 331 0
 909 0030 0432     		add	r2, r2, #4	@ tmp134,
 910 0032 A350     		str	r3, [r4, r2]	@ tmp125, pThis_1(D)->get_completion
 336:src/microrl.c **** #ifdef _ENABLE_INIT_PROMPT
 911              		.loc 1 336 0
 912 0034 9433     		add	r3, r3, #148	@ tmp137,
ARM GAS  /tmp/ccg6nZpr.s 			page 27


 335:src/microrl.c ****     pThis->print = print;
 913              		.loc 1 335 0
 914 0036 E064     		str	r0, [r4, #76]	@ tmp136, pThis_1(D)->prompt_str
 336:src/microrl.c **** #ifdef _ENABLE_INIT_PROMPT
 915              		.loc 1 336 0
 916 0038 E550     		str	r5, [r4, r3]	@ print, pThis_1(D)->print
 917              	.LVL96:
 918              	.LBB42:
 919              	.LBB43:
 217:src/microrl.c **** }
 920              		.loc 1 217 0
 921 003a A847     		blx	r5	@ print
 922              	.LVL97:
 923              	.LBE43:
 924              	.LBE42:
 340:src/microrl.c **** 
 925              		.loc 1 340 0
 926              		@ sp needed	@
 927              	.LVL98:
 928              	.LVL99:
 929 003c 38BD     		pop	{r3, r4, r5, pc}
 930              	.L80:
 931 003e C046     		.align	2
 932              	.L79:
 933 0040 1C000000 		.word	.LC16
 934              		.cfi_endproc
 935              	.LFE12:
 936              		.size	microrl_init, .-microrl_init
 937              		.section	.text.microrl_set_complete_callback,"ax",%progbits
 938              		.align	2
 939              		.global	microrl_set_complete_callback
 940              		.code	16
 941              		.thumb_func
 942              		.type	microrl_set_complete_callback, %function
 943              	microrl_set_complete_callback:
 944              	.LFB13:
 344:src/microrl.c ****     pThis->get_completion = get_completion;
 945              		.loc 1 344 0
 946              		.cfi_startproc
 947              	.LVL100:
 345:src/microrl.c **** }
 948              		.loc 1 345 0
 949 0000 9023     		mov	r3, #144	@ tmp112,
 346:src/microrl.c **** 
 950              		.loc 1 346 0
 951              		@ sp needed	@
 345:src/microrl.c **** }
 952              		.loc 1 345 0
 953 0002 C150     		str	r1, [r0, r3]	@ get_completion, pThis_2(D)->get_completion
 346:src/microrl.c **** 
 954              		.loc 1 346 0
 955 0004 7047     		bx	lr
 956              		.cfi_endproc
 957              	.LFE13:
 958              		.size	microrl_set_complete_callback, .-microrl_set_complete_callback
 959 0006 C046     		.section	.text.microrl_set_execute_callback,"ax",%progbits
 960              		.align	2
ARM GAS  /tmp/ccg6nZpr.s 			page 28


 961              		.global	microrl_set_execute_callback
 962              		.code	16
 963              		.thumb_func
 964              		.type	microrl_set_execute_callback, %function
 965              	microrl_set_execute_callback:
 966              	.LFB14:
 350:src/microrl.c ****     pThis->execute = execute;
 967              		.loc 1 350 0
 968              		.cfi_startproc
 969              	.LVL101:
 351:src/microrl.c **** }
 970              		.loc 1 351 0
 971 0000 8C23     		mov	r3, #140	@ tmp112,
 352:src/microrl.c **** #ifdef _USE_CTLR_C
 972              		.loc 1 352 0
 973              		@ sp needed	@
 351:src/microrl.c **** }
 974              		.loc 1 351 0
 975 0002 C150     		str	r1, [r0, r3]	@ execute, pThis_2(D)->execute
 352:src/microrl.c **** #ifdef _USE_CTLR_C
 976              		.loc 1 352 0
 977 0004 7047     		bx	lr
 978              		.cfi_endproc
 979              	.LFE14:
 980              		.size	microrl_set_execute_callback, .-microrl_set_execute_callback
 981 0006 C046     		.section	.text.new_line_handler,"ax",%progbits
 982              		.align	2
 983              		.global	new_line_handler
 984              		.code	16
 985              		.thumb_func
 986              		.type	new_line_handler, %function
 987              	new_line_handler:
 988              	.LFB18:
 466:src/microrl.c **** 
 467:src/microrl.c **** 
 468:src/microrl.c **** #ifdef _USE_COMPLETE
 469:src/microrl.c **** 
 470:src/microrl.c **** //*****************************************************************************
 471:src/microrl.c **** static int common_len (char ** arr)
 472:src/microrl.c **** {
 473:src/microrl.c ****     int i;
 474:src/microrl.c ****     int j;
 475:src/microrl.c ****     char *shortest = arr[0];
 476:src/microrl.c ****     int shortlen = strlen(shortest);
 477:src/microrl.c **** 
 478:src/microrl.c ****     for (i = 0; arr[i] != NULL; ++i)
 479:src/microrl.c ****         if (strlen(arr[i]) < shortlen) {
 480:src/microrl.c ****             shortest = arr[i];
 481:src/microrl.c ****             shortlen = strlen(shortest);
 482:src/microrl.c ****         }
 483:src/microrl.c **** 
 484:src/microrl.c ****     for (i = 0; i < shortlen; ++i)
 485:src/microrl.c ****         for (j = 0; arr[j] != 0; ++j)
 486:src/microrl.c ****             if (shortest[i] != arr[j][i])
 487:src/microrl.c ****                 return i;
 488:src/microrl.c **** 
 489:src/microrl.c ****     return i;
ARM GAS  /tmp/ccg6nZpr.s 			page 29


 490:src/microrl.c **** }
 491:src/microrl.c **** 
 492:src/microrl.c **** //*****************************************************************************
 493:src/microrl.c **** static void microrl_get_complite (microrl_t * pThis) 
 494:src/microrl.c **** {
 495:src/microrl.c ****     char const * tkn_arr[_COMMAND_TOKEN_NMB];
 496:src/microrl.c ****     char ** compl_token; 
 497:src/microrl.c ****     
 498:src/microrl.c ****     if (pThis->get_completion == NULL) // callback was not set
 499:src/microrl.c ****         return;
 500:src/microrl.c ****     
 501:src/microrl.c ****     int status = split (pThis, pThis->cursor, tkn_arr);
 502:src/microrl.c ****     if (pThis->cmdline[pThis->cursor-1] == '\0')
 503:src/microrl.c ****         tkn_arr[status++] = "";
 504:src/microrl.c ****     compl_token = pThis->get_completion (status, tkn_arr);
 505:src/microrl.c ****     if (compl_token[0] != NULL) {
 506:src/microrl.c ****         int i = 0;
 507:src/microrl.c ****         int len;
 508:src/microrl.c **** 
 509:src/microrl.c ****         if (compl_token[1] == NULL) {
 510:src/microrl.c ****             len = strlen (compl_token[0]);
 511:src/microrl.c ****         } else {
 512:src/microrl.c ****             len = common_len (compl_token);
 513:src/microrl.c ****             terminal_newline (pThis);
 514:src/microrl.c ****             while (compl_token [i] != NULL) {
 515:src/microrl.c ****                 pThis->print (compl_token[i]);
 516:src/microrl.c ****                 pThis->print (" ");
 517:src/microrl.c ****                 i++;
 518:src/microrl.c ****             }
 519:src/microrl.c ****             terminal_newline (pThis);
 520:src/microrl.c ****             print_prompt (pThis);
 521:src/microrl.c ****         }
 522:src/microrl.c ****         
 523:src/microrl.c ****         if (len) {
 524:src/microrl.c ****             microrl_insert_text (pThis, compl_token[0] + strlen(tkn_arr[status-1]), 
 525:src/microrl.c ****                                                                     len - strlen(tkn_arr[status-1])
 526:src/microrl.c ****             if (compl_token[1] == NULL) 
 527:src/microrl.c ****                 microrl_insert_text (pThis, " ", 1);
 528:src/microrl.c ****         }
 529:src/microrl.c ****         terminal_reset_cursor (pThis);
 530:src/microrl.c ****         terminal_print_line (pThis, 0, pThis->cursor);
 531:src/microrl.c ****     } 
 532:src/microrl.c **** }
 533:src/microrl.c **** #endif
 534:src/microrl.c **** 
 535:src/microrl.c **** //*****************************************************************************
 536:src/microrl.c **** void new_line_handler(microrl_t * pThis){
 989              		.loc 1 536 0
 990              		.cfi_startproc
 991              	.LVL102:
 992              	.LBB50:
 993              	.LBB51:
 228:src/microrl.c **** }
 994              		.loc 1 228 0
 995 0000 9423     		mov	r3, #148	@ tmp133,
 996              	.LBE51:
 997              	.LBE50:
ARM GAS  /tmp/ccg6nZpr.s 			page 30


 998              		.loc 1 536 0
 999 0002 70B5     		push	{r4, r5, r6, lr}	@
 1000              		.cfi_def_cfa_offset 16
 1001              		.cfi_offset 4, -16
 1002              		.cfi_offset 5, -12
 1003              		.cfi_offset 6, -8
 1004              		.cfi_offset 14, -4
 1005              	.LBB55:
 1006              	.LBB52:
 228:src/microrl.c **** }
 1007              		.loc 1 228 0
 1008 0004 2B4E     		ldr	r6, .L105	@ tmp169,
 1009              	.LBE52:
 1010              	.LBE55:
 1011              		.loc 1 536 0
 1012 0006 051C     		mov	r5, r0	@ pThis, pThis
 1013              	.LBB56:
 1014              	.LBB53:
 228:src/microrl.c **** }
 1015              		.loc 1 228 0
 1016 0008 C358     		ldr	r3, [r0, r3]	@ MEM[(uint32_t (*<Tf33>) (const char *) *)pThis_4(D) + 148B], MEM[(uint32_t (*<T
 1017              	.LBE53:
 1018              	.LBE56:
 1019              		.loc 1 536 0
 1020 000a 8AB0     		sub	sp, sp, #40	@,,
 1021              		.cfi_def_cfa_offset 56
 1022              	.LBB57:
 1023              	.LBB54:
 228:src/microrl.c **** }
 1024              		.loc 1 228 0
 1025 000c 301C     		mov	r0, r6	@, tmp169
 1026              	.LVL103:
 1027 000e 9847     		blx	r3	@ MEM[(uint32_t (*<Tf33>) (const char *) *)pThis_4(D) + 148B]
 1028              	.LVL104:
 1029              	.LBE54:
 1030              	.LBE57:
 537:src/microrl.c ****     char const * tkn_arr [_COMMAND_TOKEN_NMB];
 538:src/microrl.c ****     int32_t status;
 539:src/microrl.c ****     terminal_newline (pThis);
 540:src/microrl.c ****     status = split(pThis, pThis->cmdlen, tkn_arr);
 1031              		.loc 1 540 0
 1032 0010 8423     		mov	r3, #132	@ tmp136,
 1033 0012 EC58     		ldr	r4, [r5, r3]	@ D.5549, pThis_4(D)->cmdlen
 1034              	.LVL105:
 1035 0014 343B     		sub	r3, r3, #52	@ tmp137,
 1036 0016 E95C     		ldrb	r1, [r5, r3]	@ D.5550,
 1037              	.LBB58:
 1038              	.LBB59:
 193:src/microrl.c ****     int ind = 0;
 1039              		.loc 1 193 0
 1040 0018 0022     		mov	r2, #0	@ i,
 194:src/microrl.c ****     while (1) {
 1041              		.loc 1 194 0
 1042 001a 0023     		mov	r3, #0	@ ind,
 1043              	.LVL106:
 1044              	.L84:
 197:src/microrl.c ****             ind++;
ARM GAS  /tmp/ccg6nZpr.s 			page 31


 1045              		.loc 1 197 0
 1046 001c 0029     		cmp	r1, #0	@ D.5550,
 1047 001e 15D1     		bne	.L85	@,
 1048 0020 9C42     		cmp	r4, r3	@ D.5549, ind
 1049 0022 31DC     		bgt	.L86	@,
 1050              	.L87:
 1051              	.LBE59:
 1052              	.LBE58:
 541:src/microrl.c ****     if (status == -1){
 542:src/microrl.c ****         //        pThis->print ("ERROR: Max token amount exseed\n");
 543:src/microrl.c ****         pThis->print ("ERROR:too many tokens");
 544:src/microrl.c ****         pThis->print (ENDL);
 545:src/microrl.c ****     }
 546:src/microrl.c ****     if ((status > 0) && (pThis->execute != NULL)) {
 1053              		.loc 1 546 0
 1054 0024 002A     		cmp	r2, #0	@ i,
 1055 0026 34D1     		bne	.L103	@,
 1056              	.LVL107:
 1057              	.L93:
 1058              	.LBB61:
 1059              	.LBB62:
 217:src/microrl.c **** }
 1060              		.loc 1 217 0
 1061 0028 9423     		mov	r3, #148	@ tmp149,
 1062 002a E86C     		ldr	r0, [r5, #76]	@, MEM[(char * *)pThis_4(D) + 76B]
 1063 002c EB58     		ldr	r3, [r5, r3]	@ MEM[(uint32_t (*<Tf33>) (const char *) *)pThis_4(D) + 148B], MEM[(uint32_t (*<T
 1064 002e 9847     		blx	r3	@ MEM[(uint32_t (*<Tf33>) (const char *) *)pThis_4(D) + 148B]
 1065              	.LVL108:
 1066              	.LBE62:
 1067              	.LBE61:
 547:src/microrl.c ****         pThis->execute (status, tkn_arr);
 548:src/microrl.c ****     }
 549:src/microrl.c ****     print_prompt (pThis);
 550:src/microrl.c ****     pThis->cmdlen = 0;
 1068              		.loc 1 550 0
 1069 0030 0024     		mov	r4, #0	@ tmp153,
 1070 0032 8423     		mov	r3, #132	@ tmp152,
 551:src/microrl.c ****     pThis->cursor = 0;
 552:src/microrl.c ****     memset(pThis->cmdline, 0, _COMMAND_LINE_LEN);
 1071              		.loc 1 552 0
 1072 0034 281C     		mov	r0, r5	@ tmp156, pThis
 550:src/microrl.c ****     pThis->cursor = 0;
 1073              		.loc 1 550 0
 1074 0036 EC50     		str	r4, [r5, r3]	@ tmp153, pThis_4(D)->cmdlen
 551:src/microrl.c ****     pThis->cursor = 0;
 1075              		.loc 1 551 0
 1076 0038 0433     		add	r3, r3, #4	@ tmp154,
 1077 003a EC50     		str	r4, [r5, r3]	@ tmp153, pThis_4(D)->cursor
 1078              		.loc 1 552 0
 1079 003c 0021     		mov	r1, #0	@,
 1080 003e 3322     		mov	r2, #51	@,
 1081 0040 5030     		add	r0, r0, #80	@ tmp156,
 1082 0042 FFF7FEFF 		bl	memset	@
 1083              	.LVL109:
 553:src/microrl.c **** #ifdef _USE_HISTORY
 554:src/microrl.c ****     pThis->ring_hist.cur = 0;
 1084              		.loc 1 554 0
ARM GAS  /tmp/ccg6nZpr.s 			page 32


 1085 0046 AC64     		str	r4, [r5, #72]	@ tmp153, pThis_4(D)->ring_hist.cur
 555:src/microrl.c **** #endif
 556:src/microrl.c **** }
 1086              		.loc 1 556 0
 1087 0048 0AB0     		add	sp, sp, #40	@,,
 1088              	.LVL110:
 1089              		@ sp needed	@
 1090              	.LVL111:
 1091 004a 70BD     		pop	{r4, r5, r6, pc}
 1092              	.LVL112:
 1093              	.L85:
 1094              	.LBB63:
 1095              	.LBB60:
 200:src/microrl.c ****         tkn_arr[i++] = pThis->cmdline + ind;
 1096              		.loc 1 200 0
 1097 004c 9C42     		cmp	r4, r3	@ D.5549, ind
 1098 004e E9DD     		ble	.L87	@,
 201:src/microrl.c ****         if (i >= _COMMAND_TOKEN_NMB) {
 1099              		.loc 1 201 0
 1100 0050 0AA9     		add	r1, sp, #40	@ tmp170,,
 1101 0052 8C46     		mov	ip, r1	@ tmp170, tmp170
 1102 0054 191C     		mov	r1, r3	@ tmp144, ind
 1103 0056 501C     		add	r0, r2, #1	@ i, i,
 1104              	.LVL113:
 1105 0058 9200     		lsl	r2, r2, #2	@ tmp141, i,
 1106 005a 6244     		add	r2, r2, ip	@ tmp142, tmp170
 1107 005c 5031     		add	r1, r1, #80	@ tmp144,
 1108 005e 283A     		sub	r2, r2, #40	@ tmp143,
 1109 0060 6918     		add	r1, r5, r1	@ D.5552, pThis, tmp144
 1110 0062 1160     		str	r1, [r2]	@ D.5552, *_33
 202:src/microrl.c ****             return -1;
 1111              		.loc 1 202 0
 1112 0064 0928     		cmp	r0, #9	@ i,
 1113 0066 1CDC     		bgt	.L88	@,
 1114 0068 1A1C     		mov	r2, r3	@ D.5556, ind
 1115 006a 5132     		add	r2, r2, #81	@ D.5556,
 1116 006c AA18     		add	r2, r5, r2	@ ivtmp.89, pThis, D.5556
 1117 006e 02E0     		b	.L90	@
 1118              	.L104:
 1119 0070 0132     		add	r2, r2, #1	@ ivtmp.89,
 206:src/microrl.c ****             ind++;
 1120              		.loc 1 206 0
 1121 0072 A342     		cmp	r3, r4	@ ind, D.5549
 1122 0074 0ED0     		beq	.L94	@,
 1123              	.L90:
 1124 0076 1178     		ldrb	r1, [r2]	@ D.5550, MEM[base: _61, offset: 0B]
 207:src/microrl.c ****         }
 1125              		.loc 1 207 0
 1126 0078 0133     		add	r3, r3, #1	@ ind,
 1127              	.LVL114:
 206:src/microrl.c ****             ind++;
 1128              		.loc 1 206 0
 1129 007a 0029     		cmp	r1, #0	@ D.5550,
 1130 007c F8D1     		bne	.L104	@,
 209:src/microrl.c ****     }
 1131              		.loc 1 209 0
 1132 007e A342     		cmp	r3, r4	@ ind, D.5549
ARM GAS  /tmp/ccg6nZpr.s 			page 33


 1133 0080 08DA     		bge	.L94	@,
 1134 0082 021C     		mov	r2, r0	@ i, i
 197:src/microrl.c ****             ind++;
 1135              		.loc 1 197 0
 1136 0084 9C42     		cmp	r4, r3	@ D.5549, ind
 1137 0086 CDDD     		ble	.L87	@,
 1138              	.LVL115:
 1139              	.L86:
 198:src/microrl.c ****         }
 1140              		.loc 1 198 0
 1141 0088 0133     		add	r3, r3, #1	@ ind,
 1142              	.LVL116:
 1143 008a E918     		add	r1, r5, r3	@ tmp139, pThis, ind
 1144 008c 5031     		add	r1, r1, #80	@ tmp140,
 1145 008e 0978     		ldrb	r1, [r1]	@ D.5550, *pThis_4(D)
 1146 0090 C4E7     		b	.L84	@
 1147              	.L103:
 1148              	.LBE60:
 1149              	.LBE63:
 1150 0092 101C     		mov	r0, r2	@ i, i
 1151              	.LVL117:
 1152              	.L94:
 546:src/microrl.c ****         pThis->execute (status, tkn_arr);
 1153              		.loc 1 546 0 discriminator 1
 1154 0094 8C23     		mov	r3, #140	@ tmp147,
 1155              	.LVL118:
 1156 0096 EB58     		ldr	r3, [r5, r3]	@ D.5551, pThis_4(D)->execute
 1157 0098 002B     		cmp	r3, #0	@ D.5551,
 1158 009a C5D0     		beq	.L93	@,
 547:src/microrl.c ****     }
 1159              		.loc 1 547 0
 1160 009c 6946     		mov	r1, sp	@,
 1161 009e 9847     		blx	r3	@ D.5551
 1162              	.LVL119:
 1163 00a0 C2E7     		b	.L93	@
 1164              	.LVL120:
 1165              	.L88:
 543:src/microrl.c ****         pThis->print (ENDL);
 1166              		.loc 1 543 0
 1167 00a2 9424     		mov	r4, #148	@ tmp163,
 1168              	.LVL121:
 1169 00a4 0448     		ldr	r0, .L105+4	@,
 1170              	.LVL122:
 1171 00a6 2B59     		ldr	r3, [r5, r4]	@ tmp175, pThis_4(D)->print
 1172              	.LVL123:
 1173 00a8 9847     		blx	r3	@ tmp175
 1174              	.LVL124:
 544:src/microrl.c ****     }
 1175              		.loc 1 544 0
 1176 00aa 2B59     		ldr	r3, [r5, r4]	@ pThis_4(D)->print, pThis_4(D)->print
 1177 00ac 301C     		mov	r0, r6	@, tmp169
 1178 00ae 9847     		blx	r3	@ pThis_4(D)->print
 1179              	.LVL125:
 1180 00b0 BAE7     		b	.L93	@
 1181              	.L106:
 1182 00b2 C046     		.align	2
 1183              	.L105:
ARM GAS  /tmp/ccg6nZpr.s 			page 34


 1184 00b4 20000000 		.word	.LC18
 1185 00b8 24000000 		.word	.LC20
 1186              		.cfi_endproc
 1187              	.LFE18:
 1188              		.size	new_line_handler, .-new_line_handler
 1189              		.section	.text.microrl_insert_char,"ax",%progbits
 1190              		.align	2
 1191              		.global	microrl_insert_char
 1192              		.code	16
 1193              		.thumb_func
 1194              		.type	microrl_insert_char, %function
 1195              	microrl_insert_char:
 1196              	.LFB19:
 557:src/microrl.c **** 
 558:src/microrl.c **** //*****************************************************************************
 559:src/microrl.c **** 
 560:src/microrl.c **** void microrl_insert_char (microrl_t * pThis, int ch)
 561:src/microrl.c **** {
 1197              		.loc 1 561 0
 1198              		.cfi_startproc
 1199              	.LVL126:
 1200 0000 70B5     		push	{r4, r5, r6, lr}	@
 1201              		.cfi_def_cfa_offset 16
 1202              		.cfi_offset 4, -16
 1203              		.cfi_offset 5, -12
 1204              		.cfi_offset 6, -8
 1205              		.cfi_offset 14, -4
 1206 0002 82B0     		sub	sp, sp, #8	@,,
 1207              		.cfi_def_cfa_offset 24
 1208              		.loc 1 561 0
 1209 0004 041C     		mov	r4, r0	@ pThis, pThis
 1210 0006 0191     		str	r1, [sp, #4]	@ ch, ch
 562:src/microrl.c **** #ifdef _USE_ESC_SEQ
 563:src/microrl.c ****     if (pThis->escape) {
 564:src/microrl.c ****         if (escape_process(pThis, ch))
 565:src/microrl.c ****             pThis->escape = 0;
 566:src/microrl.c ****     } else {
 567:src/microrl.c **** #endif
 568:src/microrl.c ****         switch (ch) {
 1211              		.loc 1 568 0
 1212 0008 7F29     		cmp	r1, #127	@ D.5575,
 1213 000a 03D8     		bhi	.L108	@,
 1214 000c 4A4A     		ldr	r2, .L139	@ tmp146,
 1215 000e 8B00     		lsl	r3, r1, #2	@ tmp144, D.5575,
 1216 0010 D358     		ldr	r3, [r2, r3]	@ tmp147,
 1217 0012 9F46     		mov	pc, r3	@ tmp147
 1218              		.section	.rodata.microrl_insert_char,"a",%progbits
 1219              		.align	2
 1220              	.L110:
 1221 0000 14000000 		.word	.L108
 1222 0004 8E000000 		.word	.L109
 1223 0008 9C000000 		.word	.L111
 1224 000c 14000000 		.word	.L108
 1225 0010 14000000 		.word	.L108
 1226 0014 B6000000 		.word	.L112
 1227 0018 CC000000 		.word	.L113
 1228 001c 14000000 		.word	.L108
ARM GAS  /tmp/ccg6nZpr.s 			page 35


 1229 0020 E8000000 		.word	.L114
 1230 0024 14000000 		.word	.L108
 1231 0028 00010000 		.word	.L115
 1232 002c 06010000 		.word	.L116
 1233 0030 14000000 		.word	.L108
 1234 0034 6A000000 		.word	.L107
 1235 0038 18010000 		.word	.L118
 1236 003c 14000000 		.word	.L108
 1237 0040 20010000 		.word	.L119
 1238 0044 14000000 		.word	.L108
 1239 0048 14000000 		.word	.L108
 1240 004c 14000000 		.word	.L108
 1241 0050 14000000 		.word	.L108
 1242 0054 6E000000 		.word	.L120
 1243 0058 14000000 		.word	.L108
 1244 005c 14000000 		.word	.L108
 1245 0060 14000000 		.word	.L108
 1246 0064 14000000 		.word	.L108
 1247 0068 14000000 		.word	.L108
 1248 006c 6A000000 		.word	.L107
 1249 0070 14000000 		.word	.L108
 1250 0074 14000000 		.word	.L108
 1251 0078 14000000 		.word	.L108
 1252 007c 14000000 		.word	.L108
 1253 0080 14000000 		.word	.L108
 1254 0084 14000000 		.word	.L108
 1255 0088 14000000 		.word	.L108
 1256 008c 14000000 		.word	.L108
 1257 0090 14000000 		.word	.L108
 1258 0094 14000000 		.word	.L108
 1259 0098 14000000 		.word	.L108
 1260 009c 14000000 		.word	.L108
 1261 00a0 14000000 		.word	.L108
 1262 00a4 14000000 		.word	.L108
 1263 00a8 14000000 		.word	.L108
 1264 00ac 14000000 		.word	.L108
 1265 00b0 14000000 		.word	.L108
 1266 00b4 14000000 		.word	.L108
 1267 00b8 14000000 		.word	.L108
 1268 00bc 14000000 		.word	.L108
 1269 00c0 14000000 		.word	.L108
 1270 00c4 14000000 		.word	.L108
 1271 00c8 14000000 		.word	.L108
 1272 00cc 14000000 		.word	.L108
 1273 00d0 14000000 		.word	.L108
 1274 00d4 14000000 		.word	.L108
 1275 00d8 14000000 		.word	.L108
 1276 00dc 14000000 		.word	.L108
 1277 00e0 14000000 		.word	.L108
 1278 00e4 14000000 		.word	.L108
 1279 00e8 14000000 		.word	.L108
 1280 00ec 14000000 		.word	.L108
 1281 00f0 14000000 		.word	.L108
 1282 00f4 14000000 		.word	.L108
 1283 00f8 14000000 		.word	.L108
 1284 00fc 14000000 		.word	.L108
 1285 0100 14000000 		.word	.L108
ARM GAS  /tmp/ccg6nZpr.s 			page 36


 1286 0104 14000000 		.word	.L108
 1287 0108 14000000 		.word	.L108
 1288 010c 14000000 		.word	.L108
 1289 0110 14000000 		.word	.L108
 1290 0114 14000000 		.word	.L108
 1291 0118 14000000 		.word	.L108
 1292 011c 14000000 		.word	.L108
 1293 0120 14000000 		.word	.L108
 1294 0124 14000000 		.word	.L108
 1295 0128 14000000 		.word	.L108
 1296 012c 14000000 		.word	.L108
 1297 0130 14000000 		.word	.L108
 1298 0134 14000000 		.word	.L108
 1299 0138 14000000 		.word	.L108
 1300 013c 14000000 		.word	.L108
 1301 0140 14000000 		.word	.L108
 1302 0144 14000000 		.word	.L108
 1303 0148 14000000 		.word	.L108
 1304 014c 14000000 		.word	.L108
 1305 0150 14000000 		.word	.L108
 1306 0154 14000000 		.word	.L108
 1307 0158 14000000 		.word	.L108
 1308 015c 14000000 		.word	.L108
 1309 0160 14000000 		.word	.L108
 1310 0164 14000000 		.word	.L108
 1311 0168 14000000 		.word	.L108
 1312 016c 14000000 		.word	.L108
 1313 0170 14000000 		.word	.L108
 1314 0174 14000000 		.word	.L108
 1315 0178 14000000 		.word	.L108
 1316 017c 14000000 		.word	.L108
 1317 0180 14000000 		.word	.L108
 1318 0184 14000000 		.word	.L108
 1319 0188 14000000 		.word	.L108
 1320 018c 14000000 		.word	.L108
 1321 0190 14000000 		.word	.L108
 1322 0194 14000000 		.word	.L108
 1323 0198 14000000 		.word	.L108
 1324 019c 14000000 		.word	.L108
 1325 01a0 14000000 		.word	.L108
 1326 01a4 14000000 		.word	.L108
 1327 01a8 14000000 		.word	.L108
 1328 01ac 14000000 		.word	.L108
 1329 01b0 14000000 		.word	.L108
 1330 01b4 14000000 		.word	.L108
 1331 01b8 14000000 		.word	.L108
 1332 01bc 14000000 		.word	.L108
 1333 01c0 14000000 		.word	.L108
 1334 01c4 14000000 		.word	.L108
 1335 01c8 14000000 		.word	.L108
 1336 01cc 14000000 		.word	.L108
 1337 01d0 14000000 		.word	.L108
 1338 01d4 14000000 		.word	.L108
 1339 01d8 14000000 		.word	.L108
 1340 01dc 14000000 		.word	.L108
 1341 01e0 14000000 		.word	.L108
 1342 01e4 14000000 		.word	.L108
ARM GAS  /tmp/ccg6nZpr.s 			page 37


 1343 01e8 14000000 		.word	.L108
 1344 01ec 14000000 		.word	.L108
 1345 01f0 14000000 		.word	.L108
 1346 01f4 14000000 		.word	.L108
 1347 01f8 14000000 		.word	.L108
 1348 01fc E8000000 		.word	.L114
 1349              		.section	.text.microrl_insert_char
 1350              	.L108:
 569:src/microrl.c ****             //-----------------------------------------------------
 570:src/microrl.c **** #ifdef _ENDL_CR
 571:src/microrl.c ****             case KEY_CR:
 572:src/microrl.c ****                 new_line_handler(pThis);
 573:src/microrl.c ****             break;
 574:src/microrl.c ****             case KEY_LF:
 575:src/microrl.c ****             break;
 576:src/microrl.c **** #elif defined(_ENDL_CRLF)
 577:src/microrl.c ****             case KEY_CR:
 578:src/microrl.c ****                 pThis->tmpch = KEY_CR;
 579:src/microrl.c ****             break;
 580:src/microrl.c ****             case KEY_LF:
 581:src/microrl.c ****             if (pThis->tmpch == KEY_CR)
 582:src/microrl.c ****                 new_line_handler(pThis);
 583:src/microrl.c ****             break;
 584:src/microrl.c **** #elif defined(_ENDL_LFCR)
 585:src/microrl.c ****             case KEY_LF:
 586:src/microrl.c ****                 pThis->tmpch = KEY_LF;
 587:src/microrl.c ****             break;
 588:src/microrl.c ****             case KEY_CR:
 589:src/microrl.c ****             if (pThis->tmpch == KEY_LF)
 590:src/microrl.c ****                 new_line_handler(pThis);
 591:src/microrl.c ****             break;
 592:src/microrl.c **** #else
 593:src/microrl.c ****             case KEY_CR:
 594:src/microrl.c ****             break;
 595:src/microrl.c ****             case KEY_LF:
 596:src/microrl.c ****                 new_line_handler(pThis);
 597:src/microrl.c ****             break;
 598:src/microrl.c **** #endif
 599:src/microrl.c ****             //-----------------------------------------------------
 600:src/microrl.c **** #ifdef _USE_COMPLETE
 601:src/microrl.c ****             case KEY_HT:
 602:src/microrl.c ****                 microrl_get_complite (pThis);
 603:src/microrl.c ****             break;
 604:src/microrl.c **** #endif
 605:src/microrl.c ****             //-----------------------------------------------------
 606:src/microrl.c ****             case KEY_ESC:
 607:src/microrl.c **** #ifdef _USE_ESC_SEQ
 608:src/microrl.c ****                 pThis->escape = 1;
 609:src/microrl.c **** #endif
 610:src/microrl.c ****             break;
 611:src/microrl.c ****             //-----------------------------------------------------
 612:src/microrl.c ****             case KEY_NAK: // ^U
 613:src/microrl.c ****                     while (pThis->cursor > 0) {
 614:src/microrl.c ****                     microrl_backspace (pThis);
 615:src/microrl.c ****                 }
 616:src/microrl.c ****                 terminal_print_line (pThis, 0, pThis->cursor);
 617:src/microrl.c ****             break;
ARM GAS  /tmp/ccg6nZpr.s 			page 38


 618:src/microrl.c ****             //-----------------------------------------------------
 619:src/microrl.c ****             case KEY_VT:  // ^K
 620:src/microrl.c ****                 pThis->print ("\033[K");
 621:src/microrl.c ****                 pThis->cmdlen = pThis->cursor;
 622:src/microrl.c ****             break;
 623:src/microrl.c ****             //-----------------------------------------------------
 624:src/microrl.c ****             case KEY_ENQ: // ^E
 625:src/microrl.c ****                 terminal_move_cursor (pThis, pThis->cmdlen-pThis->cursor);
 626:src/microrl.c ****                 pThis->cursor = pThis->cmdlen;
 627:src/microrl.c ****             break;
 628:src/microrl.c ****             //-----------------------------------------------------
 629:src/microrl.c ****             case KEY_SOH: // ^A
 630:src/microrl.c ****                 terminal_reset_cursor (pThis);
 631:src/microrl.c ****                 pThis->cursor = 0;
 632:src/microrl.c ****             break;
 633:src/microrl.c ****             //-----------------------------------------------------
 634:src/microrl.c ****             case KEY_ACK: // ^F
 635:src/microrl.c ****             if (pThis->cursor < pThis->cmdlen) {
 636:src/microrl.c ****                 terminal_move_cursor (pThis, 1);
 637:src/microrl.c ****                 pThis->cursor++;
 638:src/microrl.c ****             }
 639:src/microrl.c ****             break;
 640:src/microrl.c ****             //-----------------------------------------------------
 641:src/microrl.c ****             case KEY_STX: // ^B
 642:src/microrl.c ****             if (pThis->cursor) {
 643:src/microrl.c ****                 terminal_move_cursor (pThis, -1);
 644:src/microrl.c ****                 pThis->cursor--;
 645:src/microrl.c ****             }
 646:src/microrl.c ****             break;
 647:src/microrl.c ****             //-----------------------------------------------------
 648:src/microrl.c ****             case KEY_DLE: //^P
 649:src/microrl.c **** #ifdef _USE_HISTORY
 650:src/microrl.c ****             hist_search (pThis, _HIST_UP);
 651:src/microrl.c **** #endif
 652:src/microrl.c ****             break;
 653:src/microrl.c ****             //-----------------------------------------------------
 654:src/microrl.c ****             case KEY_SO: //^N
 655:src/microrl.c **** #ifdef _USE_HISTORY
 656:src/microrl.c ****             hist_search (pThis, _HIST_DOWN);
 657:src/microrl.c **** #endif
 658:src/microrl.c ****             break;
 659:src/microrl.c ****             //-----------------------------------------------------
 660:src/microrl.c ****             case KEY_DEL: // Backspace
 661:src/microrl.c ****             case KEY_BS: // ^U
 662:src/microrl.c ****                 microrl_backspace (pThis);
 663:src/microrl.c ****                 terminal_print_line (pThis, pThis->cursor, pThis->cursor);
 664:src/microrl.c ****             break;
 665:src/microrl.c **** #ifdef _USE_CTLR_C
 666:src/microrl.c ****             case KEY_ETX:
 667:src/microrl.c ****             if (pThis->sigint != NULL)
 668:src/microrl.c ****                 pThis->sigint();
 669:src/microrl.c ****             break;
 670:src/microrl.c **** #endif
 671:src/microrl.c ****             //-----------------------------------------------------
 672:src/microrl.c ****             default:
 673:src/microrl.c ****             if (((ch == ' ') && (pThis->cmdlen == 0)) || IS_CONTROL_CHAR(ch))
 1351              		.loc 1 673 0
ARM GAS  /tmp/ccg6nZpr.s 			page 39


 1352 0014 2029     		cmp	r1, #32	@ D.5575,
 1353 0016 00D1     		bne	.LCB1203	@
 1354 0018 86E0     		b	.L137	@long jump	@
 1355              	.LCB1203:
 1356              		.loc 1 673 0 is_stmt 0 discriminator 3
 1357 001a 1F29     		cmp	r1, #31	@ D.5575,
 1358 001c 25DD     		ble	.L107	@,
 1359 001e 8423     		mov	r3, #132	@ tmp188,
 1360 0020 E258     		ldr	r2, [r4, r3]	@ D.5575, pThis_5(D)->cmdlen
 1361              	.L125:
 1362              	.LVL127:
 1363              	.LBB70:
 1364              	.LBB71:
 434:src/microrl.c ****         memmove (pThis->cmdline + pThis->cursor + len,
 1365              		.loc 1 434 0 is_stmt 1
 1366 0022 312A     		cmp	r2, #49	@ D.5575,
 1367 0024 21DC     		bgt	.L107	@,
 435:src/microrl.c ****                          pThis->cmdline + pThis->cursor,
 1368              		.loc 1 435 0
 1369 0026 8825     		mov	r5, #136	@ tmp189,
 1370 0028 6359     		ldr	r3, [r4, r5]	@ D.5575, pThis_5(D)->cursor
 1371 002a 181C     		mov	r0, r3	@ tmp191, D.5575
 1372              	.LVL128:
 1373 002c 191C     		mov	r1, r3	@ tmp193, D.5575
 1374              	.LVL129:
 1375 002e 5130     		add	r0, r0, #81	@ tmp191,
 1376 0030 5031     		add	r1, r1, #80	@ tmp193,
 437:src/microrl.c ****         for (i = 0; i < len; i++) {
 1377              		.loc 1 437 0
 1378 0032 D21A     		sub	r2, r2, r3	@ D.5575, D.5575, D.5575
 435:src/microrl.c ****                          pThis->cmdline + pThis->cursor,
 1379              		.loc 1 435 0
 1380 0034 6118     		add	r1, r4, r1	@ tmp194, pThis, tmp193
 1381 0036 2018     		add	r0, r4, r0	@ tmp192, pThis, tmp191
 1382 0038 FFF7FEFF 		bl	memmove	@
 1383              	.LVL130:
 439:src/microrl.c ****             if (pThis->cmdline [pThis->cursor + i] == ' ') {
 1384              		.loc 1 439 0
 1385 003c 01AB     		add	r3, sp, #4	@ tmp197,,
 1386              	.LVL131:
 1387 003e 6159     		ldr	r1, [r4, r5]	@ D.5575, pThis_5(D)->cursor
 1388 0040 1A78     		ldrb	r2, [r3]	@ D.5581, MEM[(char *)&ch]
 441:src/microrl.c ****             }
 1389              		.loc 1 441 0
 1390 0042 6318     		add	r3, r4, r1	@ tmp203, pThis, D.5575
 1391              	.LVL132:
 1392 0044 5033     		add	r3, r3, #80	@ tmp204,
 440:src/microrl.c ****                 pThis->cmdline [pThis->cursor + i] = 0;
 1393              		.loc 1 440 0
 1394 0046 202A     		cmp	r2, #32	@ D.5581,
 1395 0048 00D1     		bne	.LCB1244	@
 1396 004a 73E0     		b	.L138	@long jump	@
 1397              	.LCB1244:
 1398              	.L136:
 441:src/microrl.c ****             }
 1399              		.loc 1 441 0
 1400 004c 1A70     		strb	r2, [r3]	@ tmp205, pThis_5(D)->cmdline
ARM GAS  /tmp/ccg6nZpr.s 			page 40


 1401              	.LVL133:
 445:src/microrl.c ****         pThis->cmdline [pThis->cmdlen] = '\0';
 1402              		.loc 1 445 0
 1403 004e 8420     		mov	r0, #132	@ tmp208,
 444:src/microrl.c ****         pThis->cmdlen += len;
 1404              		.loc 1 444 0
 1405 0050 8823     		mov	r3, #136	@ tmp207,
 1406 0052 4A1C     		add	r2, r1, #1	@ D.5575, D.5575,
 1407 0054 E250     		str	r2, [r4, r3]	@ D.5575, pThis_5(D)->cursor
 445:src/microrl.c ****         pThis->cmdline [pThis->cmdlen] = '\0';
 1408              		.loc 1 445 0
 1409 0056 2358     		ldr	r3, [r4, r0]	@ tmp234, pThis_5(D)->cmdlen
 1410 0058 0133     		add	r3, r3, #1	@ D.5575,
 1411 005a 2350     		str	r3, [r4, r0]	@ D.5575, pThis_5(D)->cmdlen
 446:src/microrl.c ****         return true;
 1412              		.loc 1 446 0
 1413 005c 0020     		mov	r0, #0	@ tmp214,
 1414 005e E318     		add	r3, r4, r3	@ tmp212, pThis, D.5575
 1415 0060 5033     		add	r3, r3, #80	@ tmp213,
 1416 0062 1870     		strb	r0, [r3]	@ tmp214, pThis_5(D)->cmdline
 1417              	.LBE71:
 1418              	.LBE70:
 674:src/microrl.c ****                 break;
 675:src/microrl.c ****             if (microrl_insert_text (pThis, (char*)&ch, 1))
 676:src/microrl.c ****                 terminal_print_line (pThis, pThis->cursor-1, pThis->cursor);
 1419              		.loc 1 676 0
 1420 0064 201C     		mov	r0, r4	@, pThis
 1421 0066 FFF7FEFF 		bl	terminal_print_line	@
 1422              	.LVL134:
 1423              	.L107:
 677:src/microrl.c ****             
 678:src/microrl.c ****             break;
 679:src/microrl.c ****         }
 680:src/microrl.c **** #ifdef _USE_ESC_SEQ
 681:src/microrl.c ****     }
 682:src/microrl.c **** #endif
 683:src/microrl.c **** }
 1424              		.loc 1 683 0
 1425 006a 02B0     		add	sp, sp, #8	@,,
 1426              		@ sp needed	@
 1427              	.LVL135:
 1428 006c 70BD     		pop	{r4, r5, r6, pc}
 1429              	.LVL136:
 1430              	.L120:
 613:src/microrl.c ****                     microrl_backspace (pThis);
 1431              		.loc 1 613 0
 1432 006e 8823     		mov	r3, #136	@ tmp148,
 1433 0070 C258     		ldr	r2, [r0, r3]	@ D.5575, pThis_5(D)->cursor
 1434 0072 8825     		mov	r5, #136	@ tmp216,
 1435 0074 002A     		cmp	r2, #0	@ D.5575,
 1436 0076 05DD     		ble	.L122	@,
 1437              	.LVL137:
 1438              	.L132:
 1439              	.LBB73:
 1440              	.LBB74:
 1441 0078 201C     		mov	r0, r4	@, pThis
 1442 007a FFF7FEFF 		bl	microrl_backspace.part.5	@
ARM GAS  /tmp/ccg6nZpr.s 			page 41


 1443              	.LVL138:
 1444              	.LBE74:
 1445              	.LBE73:
 1446 007e 6259     		ldr	r2, [r4, r5]	@ D.5575, pThis_5(D)->cursor
 1447 0080 002A     		cmp	r2, #0	@ D.5575,
 1448 0082 F9DC     		bgt	.L132	@,
 1449              	.LVL139:
 1450              	.L122:
 616:src/microrl.c ****             break;
 1451              		.loc 1 616 0
 1452 0084 201C     		mov	r0, r4	@, pThis
 1453 0086 0021     		mov	r1, #0	@,
 1454 0088 FFF7FEFF 		bl	terminal_print_line	@
 1455              	.LVL140:
 617:src/microrl.c ****             //-----------------------------------------------------
 1456              		.loc 1 617 0
 1457 008c EDE7     		b	.L107	@
 1458              	.LVL141:
 1459              	.L109:
 1460 008e 9430     		add	r0, r0, #148	@ D.5577,
 1461              	.LVL142:
 630:src/microrl.c ****                 pThis->cursor = 0;
 1462              		.loc 1 630 0
 1463 0090 FFF7FEFF 		bl	terminal_reset_cursor.isra.3	@
 1464              	.LVL143:
 631:src/microrl.c ****             break;
 1465              		.loc 1 631 0
 1466 0094 0022     		mov	r2, #0	@ tmp167,
 1467 0096 8823     		mov	r3, #136	@ tmp166,
 1468 0098 E250     		str	r2, [r4, r3]	@ tmp167,
 632:src/microrl.c ****             //-----------------------------------------------------
 1469              		.loc 1 632 0
 1470 009a E6E7     		b	.L107	@
 1471              	.LVL144:
 1472              	.L111:
 642:src/microrl.c ****                 terminal_move_cursor (pThis, -1);
 1473              		.loc 1 642 0
 1474 009c 8825     		mov	r5, #136	@ tmp177,
 1475 009e 4359     		ldr	r3, [r0, r5]	@ tmp229, pThis_5(D)->cursor
 1476 00a0 002B     		cmp	r3, #0	@ tmp229,
 1477 00a2 E2D0     		beq	.L107	@,
 643:src/microrl.c ****                 pThis->cursor--;
 1478              		.loc 1 643 0
 1479 00a4 0121     		mov	r1, #1	@,
 1480              	.LVL145:
 1481 00a6 9430     		add	r0, r0, #148	@ D.5577,
 1482              	.LVL146:
 1483 00a8 4942     		neg	r1, r1	@,
 1484 00aa FFF7FEFF 		bl	terminal_move_cursor.isra.4	@
 1485              	.LVL147:
 644:src/microrl.c ****             }
 1486              		.loc 1 644 0
 1487 00ae 6359     		ldr	r3, [r4, r5]	@ tmp231, pThis_5(D)->cursor
 1488 00b0 013B     		sub	r3, r3, #1	@ D.5575,
 1489 00b2 6351     		str	r3, [r4, r5]	@ D.5575, pThis_5(D)->cursor
 1490 00b4 D9E7     		b	.L107	@
 1491              	.LVL148:
ARM GAS  /tmp/ccg6nZpr.s 			page 42


 1492              	.L112:
 625:src/microrl.c ****                 pThis->cursor = pThis->cmdlen;
 1493              		.loc 1 625 0
 1494 00b6 8426     		mov	r6, #132	@ tmp157,
 1495 00b8 8825     		mov	r5, #136	@ tmp158,
 1496 00ba A359     		ldr	r3, [r4, r6]	@ tmp221, pThis_5(D)->cmdlen
 1497 00bc 6259     		ldr	r2, [r4, r5]	@ tmp222, pThis_5(D)->cursor
 1498 00be 9430     		add	r0, r0, #148	@ D.5577,
 1499              	.LVL149:
 1500 00c0 991A     		sub	r1, r3, r2	@ D.5575, tmp221, tmp222
 1501              	.LVL150:
 1502 00c2 FFF7FEFF 		bl	terminal_move_cursor.isra.4	@
 1503              	.LVL151:
 626:src/microrl.c ****             break;
 1504              		.loc 1 626 0
 1505 00c6 A359     		ldr	r3, [r4, r6]	@ tmp223, pThis_5(D)->cmdlen
 1506 00c8 6351     		str	r3, [r4, r5]	@ tmp223, pThis_5(D)->cursor
 627:src/microrl.c ****             //-----------------------------------------------------
 1507              		.loc 1 627 0
 1508 00ca CEE7     		b	.L107	@
 1509              	.LVL152:
 1510              	.L113:
 635:src/microrl.c ****                 terminal_move_cursor (pThis, 1);
 1511              		.loc 1 635 0
 1512 00cc 8825     		mov	r5, #136	@ tmp168,
 1513 00ce 8423     		mov	r3, #132	@ tmp169,
 1514 00d0 4259     		ldr	r2, [r0, r5]	@ tmp225, pThis_5(D)->cursor
 1515 00d2 C358     		ldr	r3, [r0, r3]	@ pThis_5(D)->cmdlen, pThis_5(D)->cmdlen
 1516 00d4 9A42     		cmp	r2, r3	@ tmp225, pThis_5(D)->cmdlen
 1517 00d6 C8DA     		bge	.L107	@,
 1518 00d8 9430     		add	r0, r0, #148	@ D.5577,
 1519              	.LVL153:
 636:src/microrl.c ****                 pThis->cursor++;
 1520              		.loc 1 636 0
 1521 00da 0121     		mov	r1, #1	@,
 1522              	.LVL154:
 1523 00dc FFF7FEFF 		bl	terminal_move_cursor.isra.4	@
 1524              	.LVL155:
 637:src/microrl.c ****             }
 1525              		.loc 1 637 0
 1526 00e0 6359     		ldr	r3, [r4, r5]	@ tmp228, pThis_5(D)->cursor
 1527 00e2 0133     		add	r3, r3, #1	@ D.5575,
 1528 00e4 6351     		str	r3, [r4, r5]	@ D.5575, pThis_5(D)->cursor
 1529 00e6 C0E7     		b	.L107	@
 1530              	.LVL156:
 1531              	.L114:
 1532              	.LBB75:
 1533              	.LBB76:
 456:src/microrl.c ****         terminal_backspace (pThis);
 1534              		.loc 1 456 0
 1535 00e8 8825     		mov	r5, #136	@ tmp185,
 1536 00ea 4259     		ldr	r2, [r0, r5]	@ D.5575, pThis_5(D)->cursor
 1537 00ec 002A     		cmp	r2, #0	@ D.5575,
 1538 00ee 02DD     		ble	.L123	@,
 1539 00f0 FFF7FEFF 		bl	microrl_backspace.part.5	@
 1540              	.LVL157:
 1541 00f4 6259     		ldr	r2, [r4, r5]	@ D.5575, pThis_5(D)->cursor
ARM GAS  /tmp/ccg6nZpr.s 			page 43


 1542              	.L123:
 1543              	.LBE76:
 1544              	.LBE75:
 663:src/microrl.c ****             break;
 1545              		.loc 1 663 0
 1546 00f6 201C     		mov	r0, r4	@, pThis
 1547 00f8 111C     		mov	r1, r2	@, D.5575
 1548 00fa FFF7FEFF 		bl	terminal_print_line	@
 1549              	.LVL158:
 664:src/microrl.c **** #ifdef _USE_CTLR_C
 1550              		.loc 1 664 0
 1551 00fe B4E7     		b	.L107	@
 1552              	.LVL159:
 1553              	.L115:
 596:src/microrl.c ****             break;
 1554              		.loc 1 596 0
 1555 0100 FFF7FEFF 		bl	new_line_handler	@
 1556              	.LVL160:
 597:src/microrl.c **** #endif
 1557              		.loc 1 597 0
 1558 0104 B1E7     		b	.L107	@
 1559              	.LVL161:
 1560              	.L116:
 620:src/microrl.c ****                 pThis->cmdlen = pThis->cursor;
 1561              		.loc 1 620 0
 1562 0106 9423     		mov	r3, #148	@ tmp150,
 1563 0108 C358     		ldr	r3, [r0, r3]	@ pThis_5(D)->print, pThis_5(D)->print
 1564 010a 0C48     		ldr	r0, .L139+4	@,
 1565              	.LVL162:
 1566 010c 9847     		blx	r3	@ pThis_5(D)->print
 1567              	.LVL163:
 621:src/microrl.c ****             break;
 1568              		.loc 1 621 0
 1569 010e 8823     		mov	r3, #136	@ tmp154,
 1570 0110 E258     		ldr	r2, [r4, r3]	@ pThis_5(D)->cursor, pThis_5(D)->cursor
 1571 0112 043B     		sub	r3, r3, #4	@ tmp153,
 1572 0114 E250     		str	r2, [r4, r3]	@ pThis_5(D)->cursor,
 622:src/microrl.c ****             //-----------------------------------------------------
 1573              		.loc 1 622 0
 1574 0116 A8E7     		b	.L107	@
 1575              	.LVL164:
 1576              	.L118:
 656:src/microrl.c **** #endif
 1577              		.loc 1 656 0
 1578 0118 0121     		mov	r1, #1	@,
 1579              	.LVL165:
 1580 011a FFF7FEFF 		bl	hist_search	@
 1581              	.LVL166:
 658:src/microrl.c ****             //-----------------------------------------------------
 1582              		.loc 1 658 0
 1583 011e A4E7     		b	.L107	@
 1584              	.LVL167:
 1585              	.L119:
 650:src/microrl.c **** #endif
 1586              		.loc 1 650 0
 1587 0120 0021     		mov	r1, #0	@,
 1588              	.LVL168:
ARM GAS  /tmp/ccg6nZpr.s 			page 44


 1589 0122 FFF7FEFF 		bl	hist_search	@
 1590              	.LVL169:
 652:src/microrl.c ****             //-----------------------------------------------------
 1591              		.loc 1 652 0
 1592 0126 A0E7     		b	.L107	@
 1593              	.LVL170:
 1594              	.L137:
 673:src/microrl.c ****                 break;
 1595              		.loc 1 673 0 discriminator 1
 1596 0128 8423     		mov	r3, #132	@ tmp187,
 1597 012a E258     		ldr	r2, [r4, r3]	@ D.5575, pThis_5(D)->cmdlen
 1598 012c 002A     		cmp	r2, #0	@ D.5575,
 1599 012e 00D0     		beq	.LCB1486	@
 1600 0130 77E7     		b	.L125	@long jump	@
 1601              	.LCB1486:
 1602 0132 9AE7     		b	.L107	@
 1603              	.LVL171:
 1604              	.L138:
 1605              	.LBB77:
 1606              	.LBB72:
 441:src/microrl.c ****             }
 1607              		.loc 1 441 0
 1608 0134 0022     		mov	r2, #0	@ tmp205,
 1609 0136 89E7     		b	.L136	@
 1610              	.L140:
 1611              		.align	2
 1612              	.L139:
 1613 0138 00000000 		.word	.L110
 1614 013c 10000000 		.word	.LC12
 1615              	.LBE72:
 1616              	.LBE77:
 1617              		.cfi_endproc
 1618              	.LFE19:
 1619              		.size	microrl_insert_char, .-microrl_insert_char
 1620              		.global	prompt_default
 1621              		.section	.rodata.str1.4,"aMS",%progbits,1
 1622              		.align	2
 1623              	.LC2:
 1624 0000 1B5B00   		.ascii	"\033[\000"
 1625 0003 00       		.space	1
 1626              	.LC4:
 1627 0004 441B5B00 		.ascii	"D\033[\000"
 1628              	.LC6:
 1629 0008 4300     		.ascii	"C\000"
 1630 000a 0000     		.space	2
 1631              	.LC10:
 1632 000c 4400     		.ascii	"D\000"
 1633 000e 0000     		.space	2
 1634              	.LC12:
 1635 0010 1B5B4B00 		.ascii	"\033[K\000"
 1636              	.LC14:
 1637 0014 1B5B4420 		.ascii	"\033[D \033[D\000"
 1637      1B5B4400 
 1638              	.LC16:
 1639 001c 203E2000 		.ascii	" > \000"
 1640              	.LC18:
 1641 0020 0A00     		.ascii	"\012\000"
ARM GAS  /tmp/ccg6nZpr.s 			page 45


 1642 0022 0000     		.space	2
 1643              	.LC20:
 1644 0024 4552524F 		.ascii	"ERROR:too many tokens\000"
 1644      523A746F 
 1644      6F206D61 
 1644      6E792074 
 1644      6F6B656E 
 1645 003a 0000     		.space	2
 1646              	.LC24:
 1647 003c 3E2000   		.ascii	"> \000"
 1648              		.section	.data.prompt_default,"aw",%progbits
 1649              		.align	2
 1650              		.type	prompt_default, %object
 1651              		.size	prompt_default, 4
 1652              	prompt_default:
 1653 0000 3C000000 		.word	.LC24
 1654              		.text
 1655              	.Letext0:
 1656              		.file 2 "/usr/lib/gcc/arm-none-eabi/4.9.3/include/stddef.h"
 1657              		.file 3 "/usr/include/newlib/machine/_default_types.h"
 1658              		.file 4 "/usr/include/newlib/sys/_stdint.h"
 1659              		.file 5 "inc/microrl.h"
 1660              		.file 6 "/usr/include/newlib/string.h"