ARM GAS  /tmp/cc83IJWA.s 			page 1


   1              		.cpu cortex-m0
   2              		.fpu softvfp
   3              		.eabi_attribute 20, 1	@ Tag_ABI_FP_denormal
   4              		.eabi_attribute 21, 1	@ Tag_ABI_FP_exceptions
   5              		.eabi_attribute 23, 3	@ Tag_ABI_FP_number_model
   6              		.eabi_attribute 24, 1	@ Tag_ABI_align8_needed
   7              		.eabi_attribute 25, 1	@ Tag_ABI_align8_preserved
   8              		.eabi_attribute 26, 1	@ Tag_ABI_enum_size
   9              		.eabi_attribute 30, 2	@ Tag_ABI_optimization_goals
  10              		.eabi_attribute 34, 0	@ Tag_CPU_unaligned_access
  11              		.eabi_attribute 18, 4	@ Tag_ABI_PCS_wchar_t
  12              		.file	"ssm.c"
  13              	@ GNU C (15:4.9.3+svn231177-1) version 4.9.3 20150529 (prerelease) (arm-none-eabi)
  14              	@	compiled by GNU C version 5.2.1 20151129, GMP version 6.1.0, MPFR version 3.1.3, MPC version 1.0.
  15              	@ warning: MPFR header version 3.1.3 differs from library version 3.1.4.
  16              	@ GGC heuristics: --param ggc-min-expand=100 --param ggc-min-heapsize=131072
  17              	@ options passed:  -I . -I inc/ -I inc/fsae_drivers/
  18              	@ -I ../../lib/lpc11cx4-library/lpc_chip_11cxx_lib/inc
  19              	@ -I ../../lib/lpc11cx4-library/evt_lib/inc/ -I ../../lib/CANlib
  20              	@ -imultilib armv6-m -MD bin/ssm.d -MF bin/ssm.d -MP -MQ bin/ssm.o
  21              	@ -D__USES_INITFINI__ -D UART_BAUD=57600 -D CORE_M0 -D DEBUG_ENABLE
  22              	@ -D FSAE_DRIVERS -D CAN_ARCHITECTURE_ARM src/ssm.c -mcpu=cortex-m0 -mthumb
  23              	@ -auxbase-strip bin/ssm.o -g -ggdb3 -O2 -Wall -Wstrict-prototypes -Wextra
  24              	@ -std=gnu90 -ffunction-sections -fdata-sections -fdiagnostics-color=always
  25              	@ -fverbose-asm
  26              	@ options enabled:  -faggressive-loop-optimizations -fauto-inc-dec
  27              	@ -fbranch-count-reg -fcaller-saves -fcombine-stack-adjustments -fcommon
  28              	@ -fcompare-elim -fcprop-registers -fcrossjumping -fcse-follow-jumps
  29              	@ -fdata-sections -fdefer-pop -fdelete-null-pointer-checks -fdevirtualize
  30              	@ -fdevirtualize-speculatively -fdwarf2-cfi-asm -fearly-inlining
  31              	@ -feliminate-unused-debug-types -fexpensive-optimizations
  32              	@ -fforward-propagate -ffunction-cse -ffunction-sections -fgcse -fgcse-lm
  33              	@ -fgnu-runtime -fgnu-unique -fguess-branch-probability
  34              	@ -fhoist-adjacent-loads -fident -fif-conversion -fif-conversion2
  35              	@ -findirect-inlining -finline -finline-atomics
  36              	@ -finline-functions-called-once -finline-small-functions -fipa-cp
  37              	@ -fipa-profile -fipa-pure-const -fipa-reference -fipa-sra
  38              	@ -fira-hoist-pressure -fira-share-save-slots -fira-share-spill-slots
  39              	@ -fisolate-erroneous-paths-dereference -fivopts -fkeep-static-consts
  40              	@ -fleading-underscore -flifetime-dse -fmath-errno -fmerge-constants
  41              	@ -fmerge-debug-strings -fmove-loop-invariants -fomit-frame-pointer
  42              	@ -foptimize-sibling-calls -foptimize-strlen -fpartial-inlining -fpeephole
  43              	@ -fpeephole2 -fprefetch-loop-arrays -freg-struct-return -freorder-blocks
  44              	@ -freorder-functions -frerun-cse-after-loop
  45              	@ -fsched-critical-path-heuristic -fsched-dep-count-heuristic
  46              	@ -fsched-group-heuristic -fsched-interblock -fsched-last-insn-heuristic
  47              	@ -fsched-pressure -fsched-rank-heuristic -fsched-spec
  48              	@ -fsched-spec-insn-heuristic -fsched-stalled-insns-dep -fschedule-insns2
  49              	@ -fsection-anchors -fshow-column -fshrink-wrap -fsigned-zeros
  50              	@ -fsplit-ivs-in-unroller -fsplit-wide-types -fstrict-aliasing
  51              	@ -fstrict-overflow -fstrict-volatile-bitfields -fsync-libcalls
  52              	@ -fthread-jumps -ftoplevel-reorder -ftrapping-math -ftree-bit-ccp
  53              	@ -ftree-builtin-call-dce -ftree-ccp -ftree-ch -ftree-coalesce-vars
  54              	@ -ftree-copy-prop -ftree-copyrename -ftree-cselim -ftree-dce
  55              	@ -ftree-dominator-opts -ftree-dse -ftree-forwprop -ftree-fre
  56              	@ -ftree-loop-if-convert -ftree-loop-im -ftree-loop-ivcanon
  57              	@ -ftree-loop-optimize -ftree-parallelize-loops= -ftree-phiprop -ftree-pre
ARM GAS  /tmp/cc83IJWA.s 			page 2


  58              	@ -ftree-pta -ftree-reassoc -ftree-scev-cprop -ftree-sink -ftree-slsr
  59              	@ -ftree-sra -ftree-switch-conversion -ftree-tail-merge -ftree-ter
  60              	@ -ftree-vrp -funit-at-a-time -fvar-tracking -fvar-tracking-assignments
  61              	@ -fverbose-asm -fzero-initialized-in-bss -mlittle-endian -mlra
  62              	@ -mpic-data-is-text-relative -msched-prolog -mthumb
  63              	@ -mvectorize-with-neon-quad
  64              	
  65              		.text
  66              	.Ltext0:
  67              		.cfi_sections	.debug_frame
  68              		.section	.text.SSM_Init,"ax",%progbits
  69              		.align	2
  70              		.global	SSM_Init
  71              		.code	16
  72              		.thumb_func
  73              		.type	SSM_Init, %function
  74              	SSM_Init:
  75              	.LFB198:
  76              		.file 1 "src/ssm.c"
   1:src/ssm.c     **** #include "ssm.h"
   2:src/ssm.c     **** 
   3:src/ssm.c     **** volatile uint32_t msTicks;
   4:src/ssm.c     **** 
   5:src/ssm.c     **** void SSM_Init(BMS_INPUT_T *input, BMS_STATE_T *state, BMS_OUTPUT_T *output){
  77              		.loc 1 5 0
  78              		.cfi_startproc
  79              	.LVL0:
  80 0000 08B5     		push	{r3, lr}	@
  81              		.cfi_def_cfa_offset 8
  82              		.cfi_offset 3, -8
  83              		.cfi_offset 14, -4
   6:src/ssm.c     ****     state->curr_mode = BMS_SSM_MODE_INIT;
  84              		.loc 1 6 0
  85 0002 0023     		mov	r3, #0	@ tmp113,
  86 0004 0B70     		strb	r3, [r1]	@ tmp113, state_2(D)->curr_mode
   7:src/ssm.c     ****     state->init_state = BMS_INIT_OFF;
  87              		.loc 1 7 0
  88 0006 4B70     		strb	r3, [r1, #1]	@ tmp113, state_2(D)->init_state
   8:src/ssm.c     **** 
   9:src/ssm.c     ****     output->read_eeprom_packconfig = false;
  89              		.loc 1 9 0
  90 0008 1372     		strb	r3, [r2, #8]	@ tmp113, output_5(D)->read_eeprom_packconfig
  10:src/ssm.c     ****     output->check_packconfig_with_ltc = false;
  91              		.loc 1 10 0
  92 000a 5372     		strb	r3, [r2, #9]	@ tmp113, output_5(D)->check_packconfig_with_ltc
  11:src/ssm.c     **** 
  12:src/ssm.c     ****     input->ltc_packconfig_check_done = false;
  93              		.loc 1 12 0
  94 000c C371     		strb	r3, [r0, #7]	@ tmp113, input_8(D)->ltc_packconfig_check_done
  13:src/ssm.c     ****     input->eeprom_packconfig_read_done = false;
  95              		.loc 1 13 0
  96 000e 8371     		strb	r3, [r0, #6]	@ tmp113, input_8(D)->eeprom_packconfig_read_done
  14:src/ssm.c     **** 
  15:src/ssm.c     ****     Discharge_Init();
  97              		.loc 1 15 0
  98 0010 FFF7FEFF 		bl	Discharge_Init	@
  99              	.LVL1:
ARM GAS  /tmp/cc83IJWA.s 			page 3


  16:src/ssm.c     **** }
 100              		.loc 1 16 0
 101              		@ sp needed	@
 102 0014 08BD     		pop	{r3, pc}
 103              		.cfi_endproc
 104              	.LFE198:
 105              		.size	SSM_Init, .-SSM_Init
 106 0016 C046     		.section	.text.Init_Step,"ax",%progbits
 107              		.align	2
 108              		.global	Init_Step
 109              		.code	16
 110              		.thumb_func
 111              		.type	Init_Step, %function
 112              	Init_Step:
 113              	.LFB199:
  17:src/ssm.c     **** 
  18:src/ssm.c     **** void Init_Step(BMS_INPUT_T *input, BMS_STATE_T *state, BMS_OUTPUT_T *output){
 114              		.loc 1 18 0
 115              		.cfi_startproc
 116              	.LVL2:
 117 0000 F8B5     		push	{r3, r4, r5, r6, r7, lr}	@
 118              		.cfi_def_cfa_offset 24
 119              		.cfi_offset 3, -24
 120              		.cfi_offset 4, -20
 121              		.cfi_offset 5, -16
 122              		.cfi_offset 6, -12
 123              		.cfi_offset 7, -8
 124              		.cfi_offset 14, -4
  19:src/ssm.c     ****     switch(state->init_state){
 125              		.loc 1 19 0
 126 0002 4C78     		ldrb	r4, [r1, #1]	@ D.7175,
  18:src/ssm.c     ****     switch(state->init_state){
 127              		.loc 1 18 0
 128 0004 061C     		mov	r6, r0	@ input, input
 129 0006 0D1C     		mov	r5, r1	@ state, state
 130 0008 171C     		mov	r7, r2	@ output, output
 131              		.loc 1 19 0
 132 000a 012C     		cmp	r4, #1	@ D.7175,
 133 000c 17D0     		beq	.L4	@,
 134 000e 002C     		cmp	r4, #0	@ D.7175,
 135 0010 0DD0     		beq	.L5	@,
 136 0012 022C     		cmp	r4, #2	@ D.7175,
 137 0014 0AD1     		bne	.L2	@,
  20:src/ssm.c     ****         case(BMS_INIT_OFF):
  21:src/ssm.c     ****             Board_Println_BLOCKING("In INIT_OFF");
  22:src/ssm.c     ****             output->read_eeprom_packconfig = true;
  23:src/ssm.c     ****             state->init_state = BMS_INIT_READ_PACKCONFIG;
  24:src/ssm.c     ****             input->eeprom_packconfig_read_done = false;
  25:src/ssm.c     ****             break;
  26:src/ssm.c     ****         case(BMS_INIT_READ_PACKCONFIG):
  27:src/ssm.c     ****             Board_Println_BLOCKING("In INIT_READ_PACKCONFIG");
  28:src/ssm.c     ****             if(input->eeprom_packconfig_read_done){
  29:src/ssm.c     ****                 output->read_eeprom_packconfig = false;
  30:src/ssm.c     ****                 output->check_packconfig_with_ltc = true;
  31:src/ssm.c     ****                 state->init_state = BMS_INIT_CHECK_PACKCONFIG;
  32:src/ssm.c     ****                 input->ltc_packconfig_check_done = false;
  33:src/ssm.c     ****                 input->eeprom_packconfig_read_done = false;
ARM GAS  /tmp/cc83IJWA.s 			page 4


  34:src/ssm.c     ****             }
  35:src/ssm.c     ****             break;
  36:src/ssm.c     ****         case(BMS_INIT_CHECK_PACKCONFIG):
  37:src/ssm.c     ****             Board_Println_BLOCKING("In INIT_CHECK_PACKCONFIG");
 138              		.loc 1 37 0
 139 0016 1148     		ldr	r0, .L13	@,
 140              	.LVL3:
 141 0018 FFF7FEFF 		bl	Board_Println_BLOCKING	@
 142              	.LVL4:
  38:src/ssm.c     ****             if(input->ltc_packconfig_check_done) {
 143              		.loc 1 38 0
 144 001c F379     		ldrb	r3, [r6, #7]	@ tmp141,
 145 001e 002B     		cmp	r3, #0	@ tmp141,
 146 0020 04D0     		beq	.L2	@,
  39:src/ssm.c     ****                 output->check_packconfig_with_ltc = false;
 147              		.loc 1 39 0
 148 0022 0023     		mov	r3, #0	@ tmp142,
  40:src/ssm.c     ****                 state->init_state = BMS_INIT_DONE;
 149              		.loc 1 40 0
 150 0024 0322     		mov	r2, #3	@ tmp144,
  39:src/ssm.c     ****                 output->check_packconfig_with_ltc = false;
 151              		.loc 1 39 0
 152 0026 7B72     		strb	r3, [r7, #9]	@ tmp142, output_5(D)->check_packconfig_with_ltc
 153              		.loc 1 40 0
 154 0028 6A70     		strb	r2, [r5, #1]	@ tmp144, state_2(D)->init_state
  41:src/ssm.c     ****                 input->ltc_packconfig_check_done = false;
 155              		.loc 1 41 0
 156 002a F371     		strb	r3, [r6, #7]	@ tmp142, input_8(D)->ltc_packconfig_check_done
 157              	.L2:
  42:src/ssm.c     ****             }
  43:src/ssm.c     ****             break;
  44:src/ssm.c     ****         case(BMS_INIT_DONE):
  45:src/ssm.c     ****             //Board_Println_BLOCKING("In INIT_DONE");
  46:src/ssm.c     ****             //state->curr_mode = BMS_SSM_MODE_STANDBY;
  47:src/ssm.c     ****             break;
  48:src/ssm.c     ****     }
  49:src/ssm.c     **** }
 158              		.loc 1 49 0
 159              		@ sp needed	@
 160              	.LVL5:
 161              	.LVL6:
 162              	.LVL7:
 163 002c F8BD     		pop	{r3, r4, r5, r6, r7, pc}
 164              	.LVL8:
 165              	.L5:
  21:src/ssm.c     ****             output->read_eeprom_packconfig = true;
 166              		.loc 1 21 0
 167 002e 0C48     		ldr	r0, .L13+4	@,
 168              	.LVL9:
 169 0030 FFF7FEFF 		bl	Board_Println_BLOCKING	@
 170              	.LVL10:
  22:src/ssm.c     ****             state->init_state = BMS_INIT_READ_PACKCONFIG;
 171              		.loc 1 22 0
 172 0034 0123     		mov	r3, #1	@ tmp122,
 173 0036 3B72     		strb	r3, [r7, #8]	@ tmp122, output_5(D)->read_eeprom_packconfig
  23:src/ssm.c     ****             input->eeprom_packconfig_read_done = false;
 174              		.loc 1 23 0
ARM GAS  /tmp/cc83IJWA.s 			page 5


 175 0038 6B70     		strb	r3, [r5, #1]	@ tmp122, state_2(D)->init_state
  24:src/ssm.c     ****             break;
 176              		.loc 1 24 0
 177 003a B471     		strb	r4, [r6, #6]	@ D.7175, input_8(D)->eeprom_packconfig_read_done
  25:src/ssm.c     ****         case(BMS_INIT_READ_PACKCONFIG):
 178              		.loc 1 25 0
 179 003c F6E7     		b	.L2	@
 180              	.LVL11:
 181              	.L4:
 182              	.LBB4:
 183              	.LBB5:
  27:src/ssm.c     ****             if(input->eeprom_packconfig_read_done){
 184              		.loc 1 27 0
 185 003e 0948     		ldr	r0, .L13+8	@,
 186              	.LVL12:
 187 0040 FFF7FEFF 		bl	Board_Println_BLOCKING	@
 188              	.LVL13:
  28:src/ssm.c     ****                 output->read_eeprom_packconfig = false;
 189              		.loc 1 28 0
 190 0044 B379     		ldrb	r3, [r6, #6]	@ tmp129,
 191 0046 002B     		cmp	r3, #0	@ tmp129,
 192 0048 F0D0     		beq	.L2	@,
  29:src/ssm.c     ****                 output->check_packconfig_with_ltc = true;
 193              		.loc 1 29 0
 194 004a 0023     		mov	r3, #0	@ tmp130,
  31:src/ssm.c     ****                 input->ltc_packconfig_check_done = false;
 195              		.loc 1 31 0
 196 004c 0222     		mov	r2, #2	@ tmp134,
  29:src/ssm.c     ****                 output->check_packconfig_with_ltc = true;
 197              		.loc 1 29 0
 198 004e 3B72     		strb	r3, [r7, #8]	@ tmp130, output_5(D)->read_eeprom_packconfig
  30:src/ssm.c     ****                 state->init_state = BMS_INIT_CHECK_PACKCONFIG;
 199              		.loc 1 30 0
 200 0050 7C72     		strb	r4, [r7, #9]	@ D.7175, output_5(D)->check_packconfig_with_ltc
  31:src/ssm.c     ****                 input->ltc_packconfig_check_done = false;
 201              		.loc 1 31 0
 202 0052 6A70     		strb	r2, [r5, #1]	@ tmp134, state_2(D)->init_state
  32:src/ssm.c     ****                 input->eeprom_packconfig_read_done = false;
 203              		.loc 1 32 0
 204 0054 F371     		strb	r3, [r6, #7]	@ tmp130, input_8(D)->ltc_packconfig_check_done
  33:src/ssm.c     ****             }
 205              		.loc 1 33 0
 206 0056 B371     		strb	r3, [r6, #6]	@ tmp130, input_8(D)->eeprom_packconfig_read_done
 207 0058 E8E7     		b	.L2	@
 208              	.L14:
 209 005a C046     		.align	2
 210              	.L13:
 211 005c 24000000 		.word	.LC4
 212 0060 00000000 		.word	.LC0
 213 0064 0C000000 		.word	.LC2
 214              	.LBE5:
 215              	.LBE4:
 216              		.cfi_endproc
 217              	.LFE199:
 218              		.size	Init_Step, .-Init_Step
 219              		.section	.text.Is_Valid_Jump,"ax",%progbits
 220              		.align	2
ARM GAS  /tmp/cc83IJWA.s 			page 6


 221              		.global	Is_Valid_Jump
 222              		.code	16
 223              		.thumb_func
 224              		.type	Is_Valid_Jump, %function
 225              	Is_Valid_Jump:
 226              	.LFB200:
  50:src/ssm.c     **** 
  51:src/ssm.c     **** 
  52:src/ssm.c     **** 
  53:src/ssm.c     **** bool Is_Valid_Jump(BMS_SSM_MODE_T mode1, BMS_SSM_MODE_T mode2) {
 227              		.loc 1 53 0
 228              		.cfi_startproc
 229              	.LVL14:
  54:src/ssm.c     **** 
  55:src/ssm.c     ****     if(mode1 == BMS_SSM_MODE_STANDBY && mode2 == BMS_SSM_MODE_CHARGE) {
 230              		.loc 1 55 0
 231 0000 0128     		cmp	r0, #1	@ mode1,
 232 0002 15D0     		beq	.L28	@,
  56:src/ssm.c     ****         return true;
  57:src/ssm.c     ****     } else if(mode1 == BMS_SSM_MODE_STANDBY && mode2 == BMS_SSM_MODE_BALANCE) {
  58:src/ssm.c     ****         return true;
  59:src/ssm.c     ****     } else if(mode1 == BMS_SSM_MODE_STANDBY && mode2 == BMS_SSM_MODE_DISCHARGE) {
  60:src/ssm.c     ****         return true;
  61:src/ssm.c     **** 
  62:src/ssm.c     ****     } else if(mode1 == BMS_SSM_MODE_CHARGE && mode2 == BMS_SSM_MODE_STANDBY) {
 233              		.loc 1 62 0
 234 0004 0228     		cmp	r0, #2	@ mode1,
 235 0006 05D0     		beq	.L29	@,
  63:src/ssm.c     ****         return true;
  64:src/ssm.c     ****     } else if(mode1 == BMS_SSM_MODE_BALANCE && mode2 == BMS_SSM_MODE_STANDBY) {
 236              		.loc 1 64 0
 237 0008 0328     		cmp	r0, #3	@ mode1,
 238 000a 0AD0     		beq	.L30	@,
  65:src/ssm.c     ****         return true;
  66:src/ssm.c     ****     } else if(mode1 == BMS_SSM_MODE_DISCHARGE && mode2 == BMS_SSM_MODE_STANDBY) {
 239              		.loc 1 66 0
 240 000c 0428     		cmp	r0, #4	@ mode1,
 241 000e 17D0     		beq	.L22	@,
  67:src/ssm.c     ****         return true;
  68:src/ssm.c     ****     } else if(mode1 == BMS_SSM_MODE_BALANCE && mode2 == BMS_SSM_MODE_STANDBY) {
  69:src/ssm.c     ****         return true;
  70:src/ssm.c     **** 
  71:src/ssm.c     ****     } else if(mode1 == BMS_SSM_MODE_BALANCE && mode2 == BMS_SSM_MODE_CHARGE) {
  72:src/ssm.c     ****         return true;
  73:src/ssm.c     ****     } else if(mode1 == BMS_SSM_MODE_CHARGE && mode2 == BMS_SSM_MODE_BALANCE) {
  74:src/ssm.c     ****         return true;
  75:src/ssm.c     ****     }
  76:src/ssm.c     ****     return false;
 242              		.loc 1 76 0
 243 0010 0020     		mov	r0, #0	@ D.7182,
 244              	.LVL15:
 245              	.L25:
  77:src/ssm.c     **** }
 246              		.loc 1 77 0
 247              		@ sp needed	@
 248 0012 7047     		bx	lr
 249              	.LVL16:
ARM GAS  /tmp/cc83IJWA.s 			page 7


 250              	.L29:
  62:src/ssm.c     ****         return true;
 251              		.loc 1 62 0 discriminator 1
 252 0014 0129     		cmp	r1, #1	@ mode2,
 253 0016 18D0     		beq	.L24	@,
  73:src/ssm.c     ****         return true;
 254              		.loc 1 73 0 discriminator 1
 255 0018 C81E     		sub	r0, r1, #3	@ tmp131, mode2,
 256              	.LVL17:
 257 001a 4142     		neg	r1, r0	@ tmp132, tmp131
 258 001c 4841     		adc	r0, r0, r1	@ tmp130, tmp131, tmp132
 259              	.LVL18:
 260 001e C0B2     		uxtb	r0, r0	@ D.7182, tmp130
 261 0020 F7E7     		b	.L25	@
 262              	.LVL19:
 263              	.L30:
  64:src/ssm.c     ****         return true;
 264              		.loc 1 64 0 discriminator 1
 265 0022 0129     		cmp	r1, #1	@ mode2,
 266 0024 11D0     		beq	.L24	@,
  71:src/ssm.c     ****         return true;
 267              		.loc 1 71 0 discriminator 1
 268 0026 881E     		sub	r0, r1, #2	@ tmp127, mode2,
 269              	.LVL20:
 270 0028 4142     		neg	r1, r0	@ tmp128, tmp127
 271 002a 4841     		adc	r0, r0, r1	@ tmp126, tmp127, tmp128
 272              	.LVL21:
 273 002c C0B2     		uxtb	r0, r0	@ D.7182, tmp126
 274 002e F0E7     		b	.L25	@
 275              	.LVL22:
 276              	.L28:
  55:src/ssm.c     ****         return true;
 277              		.loc 1 55 0 discriminator 1
 278 0030 0020     		mov	r0, #0	@ tmp120,
 279              	.LVL23:
 280 0032 0223     		mov	r3, #2	@ tmp119,
 281 0034 0239     		sub	r1, r1, #2	@ tmp115,
 282              	.LVL24:
 283 0036 C9B2     		uxtb	r1, r1	@ tmp117, tmp115
 284 0038 8B42     		cmp	r3, r1	@ tmp119, tmp117
 285 003a 4041     		adc	r0, r0, r0	@ tmp118, tmp120, tmp120
 286 003c C0B2     		uxtb	r0, r0	@ D.7182, tmp118
 287 003e E8E7     		b	.L25	@
 288              	.LVL25:
 289              	.L22:
  66:src/ssm.c     ****         return true;
 290              		.loc 1 66 0 discriminator 1
 291 0040 0139     		sub	r1, r1, #1	@ tmp123,
 292              	.LVL26:
 293 0042 4842     		neg	r0, r1	@ tmp122, tmp123
 294 0044 4841     		adc	r0, r0, r1	@ tmp122, tmp123
 295              	.LVL27:
 296 0046 C0B2     		uxtb	r0, r0	@ D.7182, tmp122
 297 0048 E3E7     		b	.L25	@
 298              	.LVL28:
 299              	.L24:
  63:src/ssm.c     ****     } else if(mode1 == BMS_SSM_MODE_BALANCE && mode2 == BMS_SSM_MODE_STANDBY) {
ARM GAS  /tmp/cc83IJWA.s 			page 8


 300              		.loc 1 63 0
 301 004a 0120     		mov	r0, #1	@ D.7182,
 302              	.LVL29:
 303 004c E1E7     		b	.L25	@
 304              		.cfi_endproc
 305              	.LFE200:
 306              		.size	Is_Valid_Jump, .-Is_Valid_Jump
 307 004e C046     		.section	.text.Is_State_Done,"ax",%progbits
 308              		.align	2
 309              		.global	Is_State_Done
 310              		.code	16
 311              		.thumb_func
 312              		.type	Is_State_Done, %function
 313              	Is_State_Done:
 314              	.LFB201:
  78:src/ssm.c     **** 
  79:src/ssm.c     **** bool Is_State_Done(BMS_STATE_T *state) {
 315              		.loc 1 79 0
 316              		.cfi_startproc
 317              	.LVL30:
  80:src/ssm.c     ****     switch(state->curr_mode){
 318              		.loc 1 80 0
 319 0000 0078     		ldrb	r0, [r0]	@ D.7189, *state_3(D)
 320              	.LVL31:
  81:src/ssm.c     ****         case BMS_SSM_MODE_DISCHARGE:
  82:src/ssm.c     ****             return true;
  83:src/ssm.c     ****     }
  84:src/ssm.c     ****     return false;
  85:src/ssm.c     **** }
 321              		.loc 1 85 0
 322              		@ sp needed	@
  84:src/ssm.c     **** }
 323              		.loc 1 84 0
 324 0002 0438     		sub	r0, r0, #4	@ tmp119,
 325 0004 4342     		neg	r3, r0	@ tmp120, tmp119
 326 0006 5841     		adc	r0, r0, r3	@ tmp118, tmp119, tmp120
 327              		.loc 1 85 0
 328 0008 7047     		bx	lr
 329              		.cfi_endproc
 330              	.LFE201:
 331              		.size	Is_State_Done, .-Is_State_Done
 332              		.section	.text.SSM_Step,"ax",%progbits
 333              		.align	2
 334              		.global	SSM_Step
 335              		.code	16
 336              		.thumb_func
 337              		.type	SSM_Step, %function
 338              	SSM_Step:
 339              	.LFB202:
  86:src/ssm.c     **** 
  87:src/ssm.c     **** void SSM_Step(BMS_INPUT_T *input, BMS_STATE_T *state, BMS_OUTPUT_T *output){
 340              		.loc 1 87 0
 341              		.cfi_startproc
 342              	.LVL32:
 343 0000 08B5     		push	{r3, lr}	@
 344              		.cfi_def_cfa_offset 8
 345              		.cfi_offset 3, -8
ARM GAS  /tmp/cc83IJWA.s 			page 9


 346              		.cfi_offset 14, -4
  88:src/ssm.c     ****     switch(state->curr_mode){
 347              		.loc 1 88 0
 348 0002 0B78     		ldrb	r3, [r1]	@ D.7194, *state_3(D)
 349 0004 002B     		cmp	r3, #0	@ D.7194,
 350 0006 01D1     		bne	.L35	@,
  89:src/ssm.c     ****         case BMS_SSM_MODE_STANDBY:
  90:src/ssm.c     ****             break;
  91:src/ssm.c     ****         case BMS_SSM_MODE_INIT:
  92:src/ssm.c     ****             Init_Step(input,state,output);
 351              		.loc 1 92 0
 352 0008 FFF7FEFF 		bl	Init_Step	@
 353              	.LVL33:
 354              	.L35:
  93:src/ssm.c     ****             break;
  94:src/ssm.c     ****         case BMS_SSM_MODE_CHARGE:
  95:src/ssm.c     ****             break;
  96:src/ssm.c     ****         case BMS_SSM_MODE_DISCHARGE:
  97:src/ssm.c     ****             break;
  98:src/ssm.c     ****         case BMS_SSM_MODE_BALANCE:
  99:src/ssm.c     ****             break;
 100:src/ssm.c     ****     }
 101:src/ssm.c     **** }
 355              		.loc 1 101 0
 356              		@ sp needed	@
 357 000c 08BD     		pop	{r3, pc}
 358              		.cfi_endproc
 359              	.LFE202:
 360              		.size	SSM_Step, .-SSM_Step
 361              		.comm	msTicks,4,4
 362 000e C046     		.section	.rodata.str1.4,"aMS",%progbits,1
 363              		.align	2
 364              	.LC0:
 365 0000 496E2049 		.ascii	"In INIT_OFF\000"
 365      4E49545F 
 365      4F464600 
 366              	.LC2:
 367 000c 496E2049 		.ascii	"In INIT_READ_PACKCONFIG\000"
 367      4E49545F 
 367      52454144 
 367      5F504143 
 367      4B434F4E 
 368              	.LC4:
 369 0024 496E2049 		.ascii	"In INIT_CHECK_PACKCONFIG\000"
 369      4E49545F 
 369      43484543 
 369      4B5F5041 
 369      434B434F 
 370              		.text
 371              	.Letext0:
 372              		.file 2 "/usr/include/newlib/machine/_default_types.h"
 373              		.file 3 "/usr/include/newlib/sys/_stdint.h"
 374              		.file 4 "inc/pack.h"
 375              		.file 5 "inc/state_types.h"
 376              		.file 6 "../../lib/lpc11cx4-library/evt_lib/inc/ltc6804.h"
 377              		.file 7 "../../lib/lpc11cx4-library/lpc_chip_11cxx_lib/inc/chip.h"
 378              		.file 8 "inc/board.h"
ARM GAS  /tmp/cc83IJWA.s 			page 10

