ARM GAS  /tmp/ccn5G7Sc.s 			page 1


   1              	# 1 "../../lib/lpc11cx4-library/lpc_chip_11cxx_lib/src/startup_LPC11xx.S"
   1              	/*****************************************************************************/
   1              	...
   0              	
   0              	
   2              	/* startup_LPC11xx.s: Startup file for ARM CM0 device series                 */
   3              	/*****************************************************************************/
   4              	
   5              	/* Stack */
   6              	
   7              	    .section .stack
   8              	    .align  3
   9              	#ifdef __STACK_SIZE
  10              	    .equ    Stack_Size, __STACK_SIZE
  11              	#else
  12              	    .equ    Stack_Size, 0x200
  13              	#endif
  14              	    .globl  __StackTop
  15              	    .globl  __StackLimit
  16              	__StackLimit:
  17 0000 00000000 	    .space  Stack_Size
  17      00000000 
  17      00000000 
  17      00000000 
  17      00000000 
  18              	    .size   __StackLimit, . - __StackLimit
  19              	__StackTop:
  20              	    .size   __StackTop, . - __StackTop
  21              	
  22              	/* Vector Table */
  23              	
  24              	    .section .isr_vector
  25              	    .align 2
  26              	    .globl  __isr_vector
  27              	__isr_vector:
  28 0000 00000000 	    .long   __StackTop            /* Top of Stack */
  29 0004 00000000 	    .long   Reset_Handler         /* Reset Handler */
  30 0008 00000000 	    .long   NMI_Handler           /* NMI Handler */
  31 000c 00000000 	    .long   HardFault_Handler     /* Hard Fault Handler */
  32 0010 00000000 	    .long   0                     /* Reserved */
  33 0014 00000000 	    .long   0                     /* Reserved */
  34 0018 00000000 	    .long   0                     /* Reserved */
  35 001c 00000000 	    .long   0                     /* Reserved */
  36 0020 00000000 	    .long   0                     /* Reserved */
  37 0024 00000000 	    .long   0                     /* Reserved */
  38 0028 00000000 	    .long   0                     /* Reserved */
  39 002c 00000000 	    .long   SVC_Handler           /* SVCall Handler */
  40 0030 00000000 	    .long   0                     /* Reserved */
  41 0034 00000000 	    .long   0                     /* Reserved */
  42 0038 00000000 	    .long   PendSV_Handler        /* PendSV Handler */
  43 003c 00000000 	    .long   SysTick_Handler       /* SysTick Handler */
  44              	
  45              	
  46              	    /* External Interrupts */
  47 0040 00000000 	    .long   WAKEUP_IRQHandler           /* 16+ 0: Wakeup PIO0.0          */
  48 0044 00000000 	    .long   WAKEUP_IRQHandler           /* 16+ 1: Wakeup PIO0.1          */
  49 0048 00000000 	    .long   WAKEUP_IRQHandler           /* 16+ 2: Wakeup PIO0.2          */
ARM GAS  /tmp/ccn5G7Sc.s 			page 2


  50 004c 00000000 	    .long   WAKEUP_IRQHandler           /* 16+ 3: Wakeup PIO0.3          */
  51 0050 00000000 	    .long   WAKEUP_IRQHandler           /* 16+ 4: Wakeup PIO0.4          */
  52 0054 00000000 	    .long   WAKEUP_IRQHandler           /* 16+ 5: Wakeup PIO0.5          */
  53 0058 00000000 	    .long   WAKEUP_IRQHandler           /* 16+ 6: Wakeup PIO0.6          */
  54 005c 00000000 	    .long   WAKEUP_IRQHandler           /* 16+ 7: Wakeup PIO0.7          */
  55 0060 00000000 	    .long   WAKEUP_IRQHandler           /* 16+ 8: Wakeup PIO0.8          */
  56 0064 00000000 	    .long   WAKEUP_IRQHandler           /* 16+ 9: Wakeup PIO0.9          */
  57 0068 00000000 	    .long   WAKEUP_IRQHandler           /* 16+10: Wakeup PIO0.10         */
  58 006c 00000000 	    .long   WAKEUP_IRQHandler           /* 16+11: Wakeup PIO0.11         */
  59 0070 00000000 	    .long   WAKEUP_IRQHandler           /* 16+12: Wakeup PIO1.0          */
  60 0074 00000000 	    .long   CAN_IRQHandler             	/* 16+13: CAN Handler            */
  61 0078 00000000 	    .long   SSP1_IRQHandler        		/* 16+14: SSP1 Handler			 */
  62 007c 00000000 	    .long   I2C_IRQHandler		        /* 16+15: I2C Handler			 */
  63 0080 00000000 	    .long   TIMER16_0_IRQHandler        /* 16+16: 16-bit Counter-Timer 0 */
  64 0084 00000000 	    .long   TIMER16_1_IRQHandler        /* 16+17: 16-bit Counter-Timer 1 */
  65 0088 00000000 	    .long   TIMER32_0_IRQHandler        /* 16+18: 32-bit Counter-Timer 0 */
  66 008c 00000000 	    .long   TIMER32_1_IRQHandler        /* 16+19: 32-bit Counter-Timer 1 */
  67 0090 00000000 	    .long   SSP0_IRQHandler             /* 16+20: SSP0 Handler           */
  68 0094 00000000 	    .long   UART_IRQHandler             /* 16+21: UART Handler           */
  69 0098 00000000 	    .long   0              				/* 16+22: Reserved          	 */
  70 009c 00000000 	    .long   0              				/* 16+23: Reserved         		 */
  71 00a0 00000000 	    .long   ADC_IRQHandler              /* 16+24: ADC Handler	         */
  72 00a4 00000000 	    .long   WDT_IRQHandler              /* 16+25: Watchdog Handler       */
  73 00a8 00000000 	    .long   BOD_IRQHandler          	/* 16+26: Brown-out detect       */
  74 00ac 00000000 	    .long   0          					/* 16+27: Reserved               */
  75 00b0 00000000 	    .long   PIOINT3_IRQHandler          /* 16+28: PIO INT3               */
  76 00b4 00000000 	    .long   PIOINT2_IRQHandler          /* 16+29: PIO INT2               */
  77 00b8 00000000 	    .long   PIOINT1_IRQHandler          /* 16+30: PIO INT2               */
  78 00bc 00000000 	    .long   PIOINT0_IRQHandler          /* 16+31: PIO INT2               */
  79              	    
  80              	
  81              	    .size   __isr_vector, . - __isr_vector
  82              	
  83              	
  84              	    .thumb
  85              	    .thumb_func
  86              	    .align  1
  87              	    .globl  Reset_Handler
  88              	    .type   Reset_Handler, %function
  89              	
  90              	
  91              	/* Reset Handler */
  92              	
  93              	Reset_Handler:
  94              	    .fnstart
  95              	
  96              	#ifdef __STARTUP_CLEAR_BSS
  97              	/*  Single BSS section scheme.
  98              	 *
  99              	 *  The BSS section is specified by following symbols
 100              	 *    __bss_start__: start of the BSS section.
 101              	 *    __bss_end__: end of the BSS section.
 102              	 *
 103              	 *  Both addresses must be aligned to 4 bytes boundary.
 104              	 */
 105 00c0 0549     	    ldr r1, =__bss_start__
 106 00c2 064A     	    ldr r2, =__bss_end__
ARM GAS  /tmp/ccn5G7Sc.s 			page 3


 107              	
 108 00c4 0020     	    movs    r0, #0
 109              	
 110 00c6 521A     	    sub    r2, r1
 111 00c8 02DD     	    ble .L_loop3_done
 112              	
 113              	.L_loop3:
 114 00ca 043A     	    sub    r2, #4
 115 00cc 8850     	    str r0, [r1, r2]
 116 00ce FCDC     	    bgt .L_loop3
 117              	.L_loop3_done:
 118              	#endif /* __STARTUP_CLEAR_BSS */
 119              	
 120              	
 121              	#ifndef __NO_SYSTEM_INIT
 122 00d0 FFF7FEFF 	    bl  SystemInit
 123              	#endif
 124              	
 125              	#ifndef __START
 126              	#define __START _start
 127              	#endif
 128 00d4 FFF7FEFF 	    bl  __START
 129              	
 130 00d8 00000000 	    .pool
 130      00000000 
 131              	    .cantunwind
 132              	    .fnend
 133              	    .size   Reset_Handler, . - Reset_Handler
 134              	
 135              	    .section .text
 136              	
 137              	/* Exception Handlers */
 138              	
 139              	    .weak   NMI_Handler
 140              	    .type   NMI_Handler, %function
 141              	NMI_Handler:
 142 0000 FEE7     	    B       .
 143              	    .size   NMI_Handler, . - NMI_Handler
 144              	
 145              	    .weak   HardFault_Handler
 146              	    .type   HardFault_Handler, %function
 147              	HardFault_Handler:
 148 0002 FEE7     	    B       .
 149              	    .size   HardFault_Handler, . - HardFault_Handler
 150              	
 151              	    .weak   SVC_Handler
 152              	    .type   SVC_Handler, %function
 153              	SVC_Handler:
 154 0004 FEE7     	    B       .
 155              	    .size   SVC_Handler, . - SVC_Handler
 156              	
 157              	    .weak   PendSV_Handler
 158              	    .type   PendSV_Handler, %function
 159              	PendSV_Handler:
 160 0006 FEE7     	    B       .
 161              	    .size   PendSV_Handler, . - PendSV_Handler
 162              	
ARM GAS  /tmp/ccn5G7Sc.s 			page 4


 163              	    .weak   SysTick_Handler
 164              	    .type   SysTick_Handler, %function
 165              	SysTick_Handler:
 166 0008 FEE7     	    B       .
 167              	    .size   SysTick_Handler, . - SysTick_Handler
 168              	
 169              	
 170              	/* IRQ Handlers */
 171              	
 172              	    .globl  Default_Handler
 173              	    .type   Default_Handler, %function
 174              	Default_Handler:
 175 000a FEE7     	    B       .
 176              	    .size   Default_Handler, . - Default_Handler
 177              	
 178              	    .macro  IRQ handler
 179              	    .weak   \handler
 180              	    .set    \handler, Default_Handler
 181              	    .endm
 182              	
 183              	    IRQ     WAKEUP_IRQHandler
 183              	>  .weak WAKEUP_IRQHandler
 183              	>  .set WAKEUP_IRQHandler,Default_Handler
 184              	    IRQ     CAN_IRQHandler
 184              	>  .weak CAN_IRQHandler
 184              	>  .set CAN_IRQHandler,Default_Handler
 185              	    IRQ     SSP1_IRQHandler
 185              	>  .weak SSP1_IRQHandler
 185              	>  .set SSP1_IRQHandler,Default_Handler
 186              	    IRQ		I2C_IRQHandler
 186              	>  .weak I2C_IRQHandler
 186              	>  .set I2C_IRQHandler,Default_Handler
 187              	    IRQ     TIMER16_0_IRQHandler
 187              	>  .weak TIMER16_0_IRQHandler
 187              	>  .set TIMER16_0_IRQHandler,Default_Handler
 188              	    IRQ     TIMER16_1_IRQHandler
 188              	>  .weak TIMER16_1_IRQHandler
 188              	>  .set TIMER16_1_IRQHandler,Default_Handler
 189              	    IRQ     TIMER32_0_IRQHandler
 189              	>  .weak TIMER32_0_IRQHandler
 189              	>  .set TIMER32_0_IRQHandler,Default_Handler
 190              	    IRQ     TIMER32_1_IRQHandler
 190              	>  .weak TIMER32_1_IRQHandler
 190              	>  .set TIMER32_1_IRQHandler,Default_Handler
 191              	    IRQ     SSP0_IRQHandler
 191              	>  .weak SSP0_IRQHandler
 191              	>  .set SSP0_IRQHandler,Default_Handler
 192              	    IRQ     UART_IRQHandler
 192              	>  .weak UART_IRQHandler
 192              	>  .set UART_IRQHandler,Default_Handler
 193              	    IRQ     ADC_IRQHandler
 193              	>  .weak ADC_IRQHandler
 193              	>  .set ADC_IRQHandler,Default_Handler
 194              	    IRQ     WDT_IRQHandler
 194              	>  .weak WDT_IRQHandler
 194              	>  .set WDT_IRQHandler,Default_Handler
 195              	    IRQ     BOD_IRQHandler
ARM GAS  /tmp/ccn5G7Sc.s 			page 5


 195              	>  .weak BOD_IRQHandler
 195              	>  .set BOD_IRQHandler,Default_Handler
 196              	    IRQ     PIOINT3_IRQHandler
 196              	>  .weak PIOINT3_IRQHandler
 196              	>  .set PIOINT3_IRQHandler,Default_Handler
 197              	    IRQ     PIOINT2_IRQHandler
 197              	>  .weak PIOINT2_IRQHandler
 197              	>  .set PIOINT2_IRQHandler,Default_Handler
 198              	    IRQ     PIOINT1_IRQHandler
 198              	>  .weak PIOINT1_IRQHandler
 198              	>  .set PIOINT1_IRQHandler,Default_Handler
 199              	    IRQ     PIOINT0_IRQHandler
 199              	>  .weak PIOINT0_IRQHandler
 199              	>  .set PIOINT0_IRQHandler,Default_Handler
 200              	
 201              	
 202              	    .end
ARM GAS  /tmp/ccn5G7Sc.s 			page 6


DEFINED SYMBOLS
../../lib/lpc11cx4-library/lpc_chip_11cxx_lib/src/startup_LPC11xx.S:8      .stack:0000000000000000 $d
../../lib/lpc11cx4-library/lpc_chip_11cxx_lib/src/startup_LPC11xx.S:12     *ABS*:0000000000000200 Stack_Size
../../lib/lpc11cx4-library/lpc_chip_11cxx_lib/src/startup_LPC11xx.S:19     .stack:0000000000000200 __StackTop
../../lib/lpc11cx4-library/lpc_chip_11cxx_lib/src/startup_LPC11xx.S:16     .stack:0000000000000000 __StackLimit
../../lib/lpc11cx4-library/lpc_chip_11cxx_lib/src/startup_LPC11xx.S:25     .isr_vector:0000000000000000 $d
../../lib/lpc11cx4-library/lpc_chip_11cxx_lib/src/startup_LPC11xx.S:27     .isr_vector:0000000000000000 __isr_vector
../../lib/lpc11cx4-library/lpc_chip_11cxx_lib/src/startup_LPC11xx.S:93     .isr_vector:00000000000000c0 Reset_Handler
../../lib/lpc11cx4-library/lpc_chip_11cxx_lib/src/startup_LPC11xx.S:141    .text:0000000000000000 NMI_Handler
../../lib/lpc11cx4-library/lpc_chip_11cxx_lib/src/startup_LPC11xx.S:147    .text:0000000000000002 HardFault_Handler
../../lib/lpc11cx4-library/lpc_chip_11cxx_lib/src/startup_LPC11xx.S:153    .text:0000000000000004 SVC_Handler
../../lib/lpc11cx4-library/lpc_chip_11cxx_lib/src/startup_LPC11xx.S:159    .text:0000000000000006 PendSV_Handler
../../lib/lpc11cx4-library/lpc_chip_11cxx_lib/src/startup_LPC11xx.S:165    .text:0000000000000008 SysTick_Handler
../../lib/lpc11cx4-library/lpc_chip_11cxx_lib/src/startup_LPC11xx.S:174    .text:000000000000000a WAKEUP_IRQHandler
../../lib/lpc11cx4-library/lpc_chip_11cxx_lib/src/startup_LPC11xx.S:174    .text:000000000000000a CAN_IRQHandler
../../lib/lpc11cx4-library/lpc_chip_11cxx_lib/src/startup_LPC11xx.S:174    .text:000000000000000a SSP1_IRQHandler
../../lib/lpc11cx4-library/lpc_chip_11cxx_lib/src/startup_LPC11xx.S:174    .text:000000000000000a I2C_IRQHandler
../../lib/lpc11cx4-library/lpc_chip_11cxx_lib/src/startup_LPC11xx.S:174    .text:000000000000000a TIMER16_0_IRQHandler
../../lib/lpc11cx4-library/lpc_chip_11cxx_lib/src/startup_LPC11xx.S:174    .text:000000000000000a TIMER16_1_IRQHandler
../../lib/lpc11cx4-library/lpc_chip_11cxx_lib/src/startup_LPC11xx.S:174    .text:000000000000000a TIMER32_0_IRQHandler
../../lib/lpc11cx4-library/lpc_chip_11cxx_lib/src/startup_LPC11xx.S:174    .text:000000000000000a TIMER32_1_IRQHandler
../../lib/lpc11cx4-library/lpc_chip_11cxx_lib/src/startup_LPC11xx.S:174    .text:000000000000000a SSP0_IRQHandler
../../lib/lpc11cx4-library/lpc_chip_11cxx_lib/src/startup_LPC11xx.S:174    .text:000000000000000a UART_IRQHandler
../../lib/lpc11cx4-library/lpc_chip_11cxx_lib/src/startup_LPC11xx.S:174    .text:000000000000000a ADC_IRQHandler
../../lib/lpc11cx4-library/lpc_chip_11cxx_lib/src/startup_LPC11xx.S:174    .text:000000000000000a WDT_IRQHandler
../../lib/lpc11cx4-library/lpc_chip_11cxx_lib/src/startup_LPC11xx.S:174    .text:000000000000000a BOD_IRQHandler
../../lib/lpc11cx4-library/lpc_chip_11cxx_lib/src/startup_LPC11xx.S:174    .text:000000000000000a PIOINT3_IRQHandler
../../lib/lpc11cx4-library/lpc_chip_11cxx_lib/src/startup_LPC11xx.S:174    .text:000000000000000a PIOINT2_IRQHandler
../../lib/lpc11cx4-library/lpc_chip_11cxx_lib/src/startup_LPC11xx.S:174    .text:000000000000000a PIOINT1_IRQHandler
../../lib/lpc11cx4-library/lpc_chip_11cxx_lib/src/startup_LPC11xx.S:174    .text:000000000000000a PIOINT0_IRQHandler
../../lib/lpc11cx4-library/lpc_chip_11cxx_lib/src/startup_LPC11xx.S:105    .isr_vector:00000000000000c0 $t
../../lib/lpc11cx4-library/lpc_chip_11cxx_lib/src/startup_LPC11xx.S:130    .isr_vector:00000000000000d8 $d
            .ARM.exidx.isr_vector:0000000000000000 $d
../../lib/lpc11cx4-library/lpc_chip_11cxx_lib/src/startup_LPC11xx.S:142    .text:0000000000000000 $t
../../lib/lpc11cx4-library/lpc_chip_11cxx_lib/src/startup_LPC11xx.S:174    .text:000000000000000a Default_Handler

UNDEFINED SYMBOLS
__bss_start__
__bss_end__
SystemInit
main
